
/home/rodne/dev/cProjects/pts/test/bin/test:     file format elf64-x86-64


Disassembly of section .init:

000000000000a000 <_init>:
_init():
    a000:	f3 0f 1e fa          	endbr64 
    a004:	48 83 ec 08          	sub    $0x8,%rsp
    a008:	48 8b 05 d9 ef 02 00 	mov    0x2efd9(%rip),%rax        # 38fe8 <__gmon_start__>
    a00f:	48 85 c0             	test   %rax,%rax
    a012:	74 02                	je     a016 <_init+0x16>
    a014:	ff d0                	callq  *%rax
    a016:	48 83 c4 08          	add    $0x8,%rsp
    a01a:	c3                   	retq   

Disassembly of section .plt:

000000000000a020 <.plt>:
    a020:	ff 35 6a ee 02 00    	pushq  0x2ee6a(%rip)        # 38e90 <_GLOBAL_OFFSET_TABLE_+0x8>
    a026:	f2 ff 25 6b ee 02 00 	bnd jmpq *0x2ee6b(%rip)        # 38e98 <_GLOBAL_OFFSET_TABLE_+0x10>
    a02d:	0f 1f 00             	nopl   (%rax)
    a030:	f3 0f 1e fa          	endbr64 
    a034:	68 00 00 00 00       	pushq  $0x0
    a039:	f2 e9 e1 ff ff ff    	bnd jmpq a020 <.plt>
    a03f:	90                   	nop
    a040:	f3 0f 1e fa          	endbr64 
    a044:	68 01 00 00 00       	pushq  $0x1
    a049:	f2 e9 d1 ff ff ff    	bnd jmpq a020 <.plt>
    a04f:	90                   	nop
    a050:	f3 0f 1e fa          	endbr64 
    a054:	68 02 00 00 00       	pushq  $0x2
    a059:	f2 e9 c1 ff ff ff    	bnd jmpq a020 <.plt>
    a05f:	90                   	nop
    a060:	f3 0f 1e fa          	endbr64 
    a064:	68 03 00 00 00       	pushq  $0x3
    a069:	f2 e9 b1 ff ff ff    	bnd jmpq a020 <.plt>
    a06f:	90                   	nop
    a070:	f3 0f 1e fa          	endbr64 
    a074:	68 04 00 00 00       	pushq  $0x4
    a079:	f2 e9 a1 ff ff ff    	bnd jmpq a020 <.plt>
    a07f:	90                   	nop
    a080:	f3 0f 1e fa          	endbr64 
    a084:	68 05 00 00 00       	pushq  $0x5
    a089:	f2 e9 91 ff ff ff    	bnd jmpq a020 <.plt>
    a08f:	90                   	nop
    a090:	f3 0f 1e fa          	endbr64 
    a094:	68 06 00 00 00       	pushq  $0x6
    a099:	f2 e9 81 ff ff ff    	bnd jmpq a020 <.plt>
    a09f:	90                   	nop
    a0a0:	f3 0f 1e fa          	endbr64 
    a0a4:	68 07 00 00 00       	pushq  $0x7
    a0a9:	f2 e9 71 ff ff ff    	bnd jmpq a020 <.plt>
    a0af:	90                   	nop
    a0b0:	f3 0f 1e fa          	endbr64 
    a0b4:	68 08 00 00 00       	pushq  $0x8
    a0b9:	f2 e9 61 ff ff ff    	bnd jmpq a020 <.plt>
    a0bf:	90                   	nop
    a0c0:	f3 0f 1e fa          	endbr64 
    a0c4:	68 09 00 00 00       	pushq  $0x9
    a0c9:	f2 e9 51 ff ff ff    	bnd jmpq a020 <.plt>
    a0cf:	90                   	nop
    a0d0:	f3 0f 1e fa          	endbr64 
    a0d4:	68 0a 00 00 00       	pushq  $0xa
    a0d9:	f2 e9 41 ff ff ff    	bnd jmpq a020 <.plt>
    a0df:	90                   	nop
    a0e0:	f3 0f 1e fa          	endbr64 
    a0e4:	68 0b 00 00 00       	pushq  $0xb
    a0e9:	f2 e9 31 ff ff ff    	bnd jmpq a020 <.plt>
    a0ef:	90                   	nop
    a0f0:	f3 0f 1e fa          	endbr64 
    a0f4:	68 0c 00 00 00       	pushq  $0xc
    a0f9:	f2 e9 21 ff ff ff    	bnd jmpq a020 <.plt>
    a0ff:	90                   	nop
    a100:	f3 0f 1e fa          	endbr64 
    a104:	68 0d 00 00 00       	pushq  $0xd
    a109:	f2 e9 11 ff ff ff    	bnd jmpq a020 <.plt>
    a10f:	90                   	nop
    a110:	f3 0f 1e fa          	endbr64 
    a114:	68 0e 00 00 00       	pushq  $0xe
    a119:	f2 e9 01 ff ff ff    	bnd jmpq a020 <.plt>
    a11f:	90                   	nop
    a120:	f3 0f 1e fa          	endbr64 
    a124:	68 0f 00 00 00       	pushq  $0xf
    a129:	f2 e9 f1 fe ff ff    	bnd jmpq a020 <.plt>
    a12f:	90                   	nop
    a130:	f3 0f 1e fa          	endbr64 
    a134:	68 10 00 00 00       	pushq  $0x10
    a139:	f2 e9 e1 fe ff ff    	bnd jmpq a020 <.plt>
    a13f:	90                   	nop
    a140:	f3 0f 1e fa          	endbr64 
    a144:	68 11 00 00 00       	pushq  $0x11
    a149:	f2 e9 d1 fe ff ff    	bnd jmpq a020 <.plt>
    a14f:	90                   	nop
    a150:	f3 0f 1e fa          	endbr64 
    a154:	68 12 00 00 00       	pushq  $0x12
    a159:	f2 e9 c1 fe ff ff    	bnd jmpq a020 <.plt>
    a15f:	90                   	nop
    a160:	f3 0f 1e fa          	endbr64 
    a164:	68 13 00 00 00       	pushq  $0x13
    a169:	f2 e9 b1 fe ff ff    	bnd jmpq a020 <.plt>
    a16f:	90                   	nop
    a170:	f3 0f 1e fa          	endbr64 
    a174:	68 14 00 00 00       	pushq  $0x14
    a179:	f2 e9 a1 fe ff ff    	bnd jmpq a020 <.plt>
    a17f:	90                   	nop
    a180:	f3 0f 1e fa          	endbr64 
    a184:	68 15 00 00 00       	pushq  $0x15
    a189:	f2 e9 91 fe ff ff    	bnd jmpq a020 <.plt>
    a18f:	90                   	nop
    a190:	f3 0f 1e fa          	endbr64 
    a194:	68 16 00 00 00       	pushq  $0x16
    a199:	f2 e9 81 fe ff ff    	bnd jmpq a020 <.plt>
    a19f:	90                   	nop
    a1a0:	f3 0f 1e fa          	endbr64 
    a1a4:	68 17 00 00 00       	pushq  $0x17
    a1a9:	f2 e9 71 fe ff ff    	bnd jmpq a020 <.plt>
    a1af:	90                   	nop
    a1b0:	f3 0f 1e fa          	endbr64 
    a1b4:	68 18 00 00 00       	pushq  $0x18
    a1b9:	f2 e9 61 fe ff ff    	bnd jmpq a020 <.plt>
    a1bf:	90                   	nop
    a1c0:	f3 0f 1e fa          	endbr64 
    a1c4:	68 19 00 00 00       	pushq  $0x19
    a1c9:	f2 e9 51 fe ff ff    	bnd jmpq a020 <.plt>
    a1cf:	90                   	nop
    a1d0:	f3 0f 1e fa          	endbr64 
    a1d4:	68 1a 00 00 00       	pushq  $0x1a
    a1d9:	f2 e9 41 fe ff ff    	bnd jmpq a020 <.plt>
    a1df:	90                   	nop
    a1e0:	f3 0f 1e fa          	endbr64 
    a1e4:	68 1b 00 00 00       	pushq  $0x1b
    a1e9:	f2 e9 31 fe ff ff    	bnd jmpq a020 <.plt>
    a1ef:	90                   	nop
    a1f0:	f3 0f 1e fa          	endbr64 
    a1f4:	68 1c 00 00 00       	pushq  $0x1c
    a1f9:	f2 e9 21 fe ff ff    	bnd jmpq a020 <.plt>
    a1ff:	90                   	nop
    a200:	f3 0f 1e fa          	endbr64 
    a204:	68 1d 00 00 00       	pushq  $0x1d
    a209:	f2 e9 11 fe ff ff    	bnd jmpq a020 <.plt>
    a20f:	90                   	nop
    a210:	f3 0f 1e fa          	endbr64 
    a214:	68 1e 00 00 00       	pushq  $0x1e
    a219:	f2 e9 01 fe ff ff    	bnd jmpq a020 <.plt>
    a21f:	90                   	nop
    a220:	f3 0f 1e fa          	endbr64 
    a224:	68 1f 00 00 00       	pushq  $0x1f
    a229:	f2 e9 f1 fd ff ff    	bnd jmpq a020 <.plt>
    a22f:	90                   	nop
    a230:	f3 0f 1e fa          	endbr64 
    a234:	68 20 00 00 00       	pushq  $0x20
    a239:	f2 e9 e1 fd ff ff    	bnd jmpq a020 <.plt>
    a23f:	90                   	nop
    a240:	f3 0f 1e fa          	endbr64 
    a244:	68 21 00 00 00       	pushq  $0x21
    a249:	f2 e9 d1 fd ff ff    	bnd jmpq a020 <.plt>
    a24f:	90                   	nop
    a250:	f3 0f 1e fa          	endbr64 
    a254:	68 22 00 00 00       	pushq  $0x22
    a259:	f2 e9 c1 fd ff ff    	bnd jmpq a020 <.plt>
    a25f:	90                   	nop
    a260:	f3 0f 1e fa          	endbr64 
    a264:	68 23 00 00 00       	pushq  $0x23
    a269:	f2 e9 b1 fd ff ff    	bnd jmpq a020 <.plt>
    a26f:	90                   	nop
    a270:	f3 0f 1e fa          	endbr64 
    a274:	68 24 00 00 00       	pushq  $0x24
    a279:	f2 e9 a1 fd ff ff    	bnd jmpq a020 <.plt>
    a27f:	90                   	nop

Disassembly of section .plt.got:

000000000000a280 <__cxa_finalize@plt>:
    a280:	f3 0f 1e fa          	endbr64 
    a284:	f2 ff 25 3d ed 02 00 	bnd jmpq *0x2ed3d(%rip)        # 38fc8 <__cxa_finalize@GLIBC_2.2.5>
    a28b:	0f 1f 44 00 00       	nopl   0x0(%rax,%rax,1)

Disassembly of section .plt.sec:

000000000000a290 <__errno_location@plt>:
    a290:	f3 0f 1e fa          	endbr64 
    a294:	f2 ff 25 05 ec 02 00 	bnd jmpq *0x2ec05(%rip)        # 38ea0 <__errno_location@GLIBC_2.2.5>
    a29b:	0f 1f 44 00 00       	nopl   0x0(%rax,%rax,1)

000000000000a2a0 <printf@plt>:
    a2a0:	f3 0f 1e fa          	endbr64 
    a2a4:	f2 ff 25 fd eb 02 00 	bnd jmpq *0x2ebfd(%rip)        # 38ea8 <printf@GLIBC_2.2.5>
    a2ab:	0f 1f 44 00 00       	nopl   0x0(%rax,%rax,1)

000000000000a2b0 <sprintf@plt>:
    a2b0:	f3 0f 1e fa          	endbr64 
    a2b4:	f2 ff 25 f5 eb 02 00 	bnd jmpq *0x2ebf5(%rip)        # 38eb0 <sprintf@GLIBC_2.2.5>
    a2bb:	0f 1f 44 00 00       	nopl   0x0(%rax,%rax,1)

000000000000a2c0 <__longjmp_chk@plt>:
    a2c0:	f3 0f 1e fa          	endbr64 
    a2c4:	f2 ff 25 ed eb 02 00 	bnd jmpq *0x2ebed(%rip)        # 38eb8 <__longjmp_chk@GLIBC_2.11>
    a2cb:	0f 1f 44 00 00       	nopl   0x0(%rax,%rax,1)

000000000000a2d0 <fork@plt>:
    a2d0:	f3 0f 1e fa          	endbr64 
    a2d4:	f2 ff 25 e5 eb 02 00 	bnd jmpq *0x2ebe5(%rip)        # 38ec0 <fork@GLIBC_2.2.5>
    a2db:	0f 1f 44 00 00       	nopl   0x0(%rax,%rax,1)

000000000000a2e0 <__cxa_begin_catch@plt>:
    a2e0:	f3 0f 1e fa          	endbr64 
    a2e4:	f2 ff 25 dd eb 02 00 	bnd jmpq *0x2ebdd(%rip)        # 38ec8 <__cxa_begin_catch@CXXABI_1.3>
    a2eb:	0f 1f 44 00 00       	nopl   0x0(%rax,%rax,1)

000000000000a2f0 <strlen@plt>:
    a2f0:	f3 0f 1e fa          	endbr64 
    a2f4:	f2 ff 25 d5 eb 02 00 	bnd jmpq *0x2ebd5(%rip)        # 38ed0 <strlen@GLIBC_2.2.5>
    a2fb:	0f 1f 44 00 00       	nopl   0x0(%rax,%rax,1)

000000000000a300 <__cxa_allocate_exception@plt>:
    a300:	f3 0f 1e fa          	endbr64 
    a304:	f2 ff 25 cd eb 02 00 	bnd jmpq *0x2ebcd(%rip)        # 38ed8 <__cxa_allocate_exception@CXXABI_1.3>
    a30b:	0f 1f 44 00 00       	nopl   0x0(%rax,%rax,1)

000000000000a310 <__cxa_guard_abort@plt>:
    a310:	f3 0f 1e fa          	endbr64 
    a314:	f2 ff 25 c5 eb 02 00 	bnd jmpq *0x2ebc5(%rip)        # 38ee0 <__cxa_guard_abort@CXXABI_1.3>
    a31b:	0f 1f 44 00 00       	nopl   0x0(%rax,%rax,1)

000000000000a320 <__cxa_guard_release@plt>:
    a320:	f3 0f 1e fa          	endbr64 
    a324:	f2 ff 25 bd eb 02 00 	bnd jmpq *0x2ebbd(%rip)        # 38ee8 <__cxa_guard_release@CXXABI_1.3>
    a32b:	0f 1f 44 00 00       	nopl   0x0(%rax,%rax,1)

000000000000a330 <localtime@plt>:
    a330:	f3 0f 1e fa          	endbr64 
    a334:	f2 ff 25 b5 eb 02 00 	bnd jmpq *0x2ebb5(%rip)        # 38ef0 <localtime@GLIBC_2.2.5>
    a33b:	0f 1f 44 00 00       	nopl   0x0(%rax,%rax,1)

000000000000a340 <pthread_mutex_unlock@plt>:
    a340:	f3 0f 1e fa          	endbr64 
    a344:	f2 ff 25 ad eb 02 00 	bnd jmpq *0x2ebad(%rip)        # 38ef8 <pthread_mutex_unlock@GLIBC_2.2.5>
    a34b:	0f 1f 44 00 00       	nopl   0x0(%rax,%rax,1)

000000000000a350 <waitpid@plt>:
    a350:	f3 0f 1e fa          	endbr64 
    a354:	f2 ff 25 a5 eb 02 00 	bnd jmpq *0x2eba5(%rip)        # 38f00 <waitpid@GLIBC_2.2.5>
    a35b:	0f 1f 44 00 00       	nopl   0x0(%rax,%rax,1)

000000000000a360 <strftime@plt>:
    a360:	f3 0f 1e fa          	endbr64 
    a364:	f2 ff 25 9d eb 02 00 	bnd jmpq *0x2eb9d(%rip)        # 38f08 <strftime@GLIBC_2.2.5>
    a36b:	0f 1f 44 00 00       	nopl   0x0(%rax,%rax,1)

000000000000a370 <memcpy@plt>:
    a370:	f3 0f 1e fa          	endbr64 
    a374:	f2 ff 25 95 eb 02 00 	bnd jmpq *0x2eb95(%rip)        # 38f10 <memcpy@GLIBC_2.14>
    a37b:	0f 1f 44 00 00       	nopl   0x0(%rax,%rax,1)

000000000000a380 <__cxa_atexit@plt>:
    a380:	f3 0f 1e fa          	endbr64 
    a384:	f2 ff 25 8d eb 02 00 	bnd jmpq *0x2eb8d(%rip)        # 38f18 <__cxa_atexit@GLIBC_2.2.5>
    a38b:	0f 1f 44 00 00       	nopl   0x0(%rax,%rax,1)

000000000000a390 <time@plt>:
    a390:	f3 0f 1e fa          	endbr64 
    a394:	f2 ff 25 85 eb 02 00 	bnd jmpq *0x2eb85(%rip)        # 38f20 <time@GLIBC_2.2.5>
    a39b:	0f 1f 44 00 00       	nopl   0x0(%rax,%rax,1)

000000000000a3a0 <fclose@plt>:
    a3a0:	f3 0f 1e fa          	endbr64 
    a3a4:	f2 ff 25 7d eb 02 00 	bnd jmpq *0x2eb7d(%rip)        # 38f28 <fclose@GLIBC_2.2.5>
    a3ab:	0f 1f 44 00 00       	nopl   0x0(%rax,%rax,1)

000000000000a3b0 <__stack_chk_fail@plt>:
    a3b0:	f3 0f 1e fa          	endbr64 
    a3b4:	f2 ff 25 75 eb 02 00 	bnd jmpq *0x2eb75(%rip)        # 38f30 <__stack_chk_fail@GLIBC_2.4>
    a3bb:	0f 1f 44 00 00       	nopl   0x0(%rax,%rax,1)

000000000000a3c0 <fputs@plt>:
    a3c0:	f3 0f 1e fa          	endbr64 
    a3c4:	f2 ff 25 6d eb 02 00 	bnd jmpq *0x2eb6d(%rip)        # 38f38 <fputs@GLIBC_2.2.5>
    a3cb:	0f 1f 44 00 00       	nopl   0x0(%rax,%rax,1)

000000000000a3d0 <pthread_mutex_destroy@plt>:
    a3d0:	f3 0f 1e fa          	endbr64 
    a3d4:	f2 ff 25 65 eb 02 00 	bnd jmpq *0x2eb65(%rip)        # 38f40 <pthread_mutex_destroy@GLIBC_2.2.5>
    a3db:	0f 1f 44 00 00       	nopl   0x0(%rax,%rax,1)

000000000000a3e0 <fflush@plt>:
    a3e0:	f3 0f 1e fa          	endbr64 
    a3e4:	f2 ff 25 5d eb 02 00 	bnd jmpq *0x2eb5d(%rip)        # 38f48 <fflush@GLIBC_2.2.5>
    a3eb:	0f 1f 44 00 00       	nopl   0x0(%rax,%rax,1)

000000000000a3f0 <fopen@plt>:
    a3f0:	f3 0f 1e fa          	endbr64 
    a3f4:	f2 ff 25 55 eb 02 00 	bnd jmpq *0x2eb55(%rip)        # 38f50 <fopen@GLIBC_2.2.5>
    a3fb:	0f 1f 44 00 00       	nopl   0x0(%rax,%rax,1)

000000000000a400 <malloc@plt>:
    a400:	f3 0f 1e fa          	endbr64 
    a404:	f2 ff 25 4d eb 02 00 	bnd jmpq *0x2eb4d(%rip)        # 38f58 <malloc@GLIBC_2.2.5>
    a40b:	0f 1f 44 00 00       	nopl   0x0(%rax,%rax,1)

000000000000a410 <kill@plt>:
    a410:	f3 0f 1e fa          	endbr64 
    a414:	f2 ff 25 45 eb 02 00 	bnd jmpq *0x2eb45(%rip)        # 38f60 <kill@GLIBC_2.2.5>
    a41b:	0f 1f 44 00 00       	nopl   0x0(%rax,%rax,1)

000000000000a420 <__cxa_throw_bad_array_new_length@plt>:
    a420:	f3 0f 1e fa          	endbr64 
    a424:	f2 ff 25 3d eb 02 00 	bnd jmpq *0x2eb3d(%rip)        # 38f68 <__cxa_throw_bad_array_new_length@CXXABI_1.3.8>
    a42b:	0f 1f 44 00 00       	nopl   0x0(%rax,%rax,1)

000000000000a430 <_setjmp@plt>:
    a430:	f3 0f 1e fa          	endbr64 
    a434:	f2 ff 25 35 eb 02 00 	bnd jmpq *0x2eb35(%rip)        # 38f70 <_setjmp@GLIBC_2.2.5>
    a43b:	0f 1f 44 00 00       	nopl   0x0(%rax,%rax,1)

000000000000a440 <pthread_mutex_lock@plt>:
    a440:	f3 0f 1e fa          	endbr64 
    a444:	f2 ff 25 2d eb 02 00 	bnd jmpq *0x2eb2d(%rip)        # 38f78 <pthread_mutex_lock@GLIBC_2.2.5>
    a44b:	0f 1f 44 00 00       	nopl   0x0(%rax,%rax,1)

000000000000a450 <pthread_mutex_init@plt>:
    a450:	f3 0f 1e fa          	endbr64 
    a454:	f2 ff 25 25 eb 02 00 	bnd jmpq *0x2eb25(%rip)        # 38f80 <pthread_mutex_init@GLIBC_2.2.5>
    a45b:	0f 1f 44 00 00       	nopl   0x0(%rax,%rax,1)

000000000000a460 <puts@plt>:
    a460:	f3 0f 1e fa          	endbr64 
    a464:	f2 ff 25 1d eb 02 00 	bnd jmpq *0x2eb1d(%rip)        # 38f88 <puts@GLIBC_2.2.5>
    a46b:	0f 1f 44 00 00       	nopl   0x0(%rax,%rax,1)

000000000000a470 <strtok@plt>:
    a470:	f3 0f 1e fa          	endbr64 
    a474:	f2 ff 25 15 eb 02 00 	bnd jmpq *0x2eb15(%rip)        # 38f90 <strtok@GLIBC_2.2.5>
    a47b:	0f 1f 44 00 00       	nopl   0x0(%rax,%rax,1)

000000000000a480 <gettimeofday@plt>:
    a480:	f3 0f 1e fa          	endbr64 
    a484:	f2 ff 25 0d eb 02 00 	bnd jmpq *0x2eb0d(%rip)        # 38f98 <gettimeofday@GLIBC_2.2.5>
    a48b:	0f 1f 44 00 00       	nopl   0x0(%rax,%rax,1)

000000000000a490 <_exit@plt>:
    a490:	f3 0f 1e fa          	endbr64 
    a494:	f2 ff 25 05 eb 02 00 	bnd jmpq *0x2eb05(%rip)        # 38fa0 <_exit@GLIBC_2.2.5>
    a49b:	0f 1f 44 00 00       	nopl   0x0(%rax,%rax,1)

000000000000a4a0 <__cxa_end_catch@plt>:
    a4a0:	f3 0f 1e fa          	endbr64 
    a4a4:	f2 ff 25 fd ea 02 00 	bnd jmpq *0x2eafd(%rip)        # 38fa8 <__cxa_end_catch@CXXABI_1.3>
    a4ab:	0f 1f 44 00 00       	nopl   0x0(%rax,%rax,1)

000000000000a4b0 <__cxa_throw@plt>:
    a4b0:	f3 0f 1e fa          	endbr64 
    a4b4:	f2 ff 25 f5 ea 02 00 	bnd jmpq *0x2eaf5(%rip)        # 38fb0 <__cxa_throw@CXXABI_1.3>
    a4bb:	0f 1f 44 00 00       	nopl   0x0(%rax,%rax,1)

000000000000a4c0 <_Unwind_Resume@plt>:
    a4c0:	f3 0f 1e fa          	endbr64 
    a4c4:	f2 ff 25 ed ea 02 00 	bnd jmpq *0x2eaed(%rip)        # 38fb8 <_Unwind_Resume@GCC_3.0>
    a4cb:	0f 1f 44 00 00       	nopl   0x0(%rax,%rax,1)

000000000000a4d0 <__cxa_guard_acquire@plt>:
    a4d0:	f3 0f 1e fa          	endbr64 
    a4d4:	f2 ff 25 e5 ea 02 00 	bnd jmpq *0x2eae5(%rip)        # 38fc0 <__cxa_guard_acquire@CXXABI_1.3>
    a4db:	0f 1f 44 00 00       	nopl   0x0(%rax,%rax,1)

Disassembly of section .text:

000000000000a4e0 <_ZN21CommandLineTestRunner19createConsoleOutputEv.cold>:
_ZN21CommandLineTestRunner19createConsoleOutputEv():
/home/rodne/dev/cProjects/cpputest/cpputest_build/../src/CppUTest/CommandLineTestRunner.cpp:171 (discriminator 1)
    return junitOutput;
}

TestOutput* CommandLineTestRunner::createConsoleOutput()
{
    return new ConsoleTestOutput;
    a4e0:	4c 89 e7             	mov    %r12,%rdi
    a4e3:	ba ab 00 00 00       	mov    $0xab,%edx
    a4e8:	48 8d 35 19 b0 01 00 	lea    0x1b019(%rip),%rsi        # 25508 <_ZTS37TEST_GROUP_CppUTestGroupLearningTests+0x28>
    a4ef:	e8 3c 60 00 00       	callq  10530 <_ZdlPvPKci>
    a4f4:	48 89 ef             	mov    %rbp,%rdi
    a4f7:	e8 c4 ff ff ff       	callq  a4c0 <_Unwind_Resume@plt>

000000000000a4fc <_ZN21CommandLineTestRunner20createTeamCityOutputEv.cold>:
_ZN21CommandLineTestRunner20createTeamCityOutputEv():
/home/rodne/dev/cProjects/cpputest/cpputest_build/../src/CppUTest/CommandLineTestRunner.cpp:157 (discriminator 1)
    return new TeamCityTestOutput;
    a4fc:	4c 89 e7             	mov    %r12,%rdi
    a4ff:	ba 9d 00 00 00       	mov    $0x9d,%edx
    a504:	48 8d 35 fd af 01 00 	lea    0x1affd(%rip),%rsi        # 25508 <_ZTS37TEST_GROUP_CppUTestGroupLearningTests+0x28>
    a50b:	e8 20 60 00 00       	callq  10530 <_ZdlPvPKci>
    a510:	48 89 ef             	mov    %rbp,%rdi
    a513:	e8 a8 ff ff ff       	callq  a4c0 <_Unwind_Resume@plt>

000000000000a518 <_ZN21CommandLineTestRunner17createJUnitOutputERK12SimpleString.cold>:
_ZN21CommandLineTestRunner17createJUnitOutputERK12SimpleString():
/home/rodne/dev/cProjects/cpputest/cpputest_build/../src/CppUTest/CommandLineTestRunner.cpp:162 (discriminator 1)
    JUnitTestOutput* junitOutput = new JUnitTestOutput;
    a518:	4c 89 e7             	mov    %r12,%rdi
    a51b:	ba a2 00 00 00       	mov    $0xa2,%edx
    a520:	48 8d 35 e1 af 01 00 	lea    0x1afe1(%rip),%rsi        # 25508 <_ZTS37TEST_GROUP_CppUTestGroupLearningTests+0x28>
    a527:	e8 04 60 00 00       	callq  10530 <_ZdlPvPKci>
    a52c:	48 89 ef             	mov    %rbp,%rdi
    a52f:	e8 8c ff ff ff       	callq  a4c0 <_Unwind_Resume@plt>

000000000000a534 <_ZN21CommandLineTestRunnerC2EiPKPKcP12TestRegistry.cold>:
_ZN21CommandLineTestRunnerC2EiPKPKcP12TestRegistry():
/home/rodne/dev/cProjects/cpputest/cpputest_build/../src/CppUTest/CommandLineTestRunner.cpp:65 (discriminator 1)
    arguments_ = new CommandLineArguments(ac, av);
    a534:	48 89 ef             	mov    %rbp,%rdi
    a537:	ba 41 00 00 00       	mov    $0x41,%edx
    a53c:	48 8d 35 c5 af 01 00 	lea    0x1afc5(%rip),%rsi        # 25508 <_ZTS37TEST_GROUP_CppUTestGroupLearningTests+0x28>
    a543:	e8 e8 5f 00 00       	callq  10530 <_ZdlPvPKci>
    a548:	4c 89 e7             	mov    %r12,%rdi
    a54b:	e8 70 ff ff ff       	callq  a4c0 <_Unwind_Resume@plt>

000000000000a550 <_ZN21CommandLineTestRunner11runAllTestsEv.cold>:
_ZN21CommandLineTestRunner11runAllTestsEv():
/home/rodne/dev/cProjects/cpputest/cpputest_build/../src/CppUTest/CommandLineTestRunner.cpp:125
        TestResult tr(*output_);
    a550:	48 89 ef             	mov    %rbp,%rdi
    a553:	e8 a8 21 01 00       	callq  1c700 <_ZN10TestResultD1Ev>
    a558:	4c 89 e7             	mov    %r12,%rdi
    a55b:	e8 60 ff ff ff       	callq  a4c0 <_Unwind_Resume@plt>
/home/rodne/dev/cProjects/cpputest/cpputest_build/../src/CppUTest/CommandLineTestRunner.cpp:145
        TestResult tr(*output_);
    a560:	48 89 ef             	mov    %rbp,%rdi
    a563:	e8 98 21 01 00       	callq  1c700 <_ZN10TestResultD1Ev>
    a568:	4c 89 e7             	mov    %r12,%rdi
    a56b:	e8 50 ff ff ff       	callq  a4c0 <_Unwind_Resume@plt>
/home/rodne/dev/cProjects/cpputest/cpputest_build/../src/CppUTest/CommandLineTestRunner.cpp:111
        TestResult tr(*output_);
    a570:	48 89 ef             	mov    %rbp,%rdi
    a573:	e8 88 21 01 00       	callq  1c700 <_ZN10TestResultD1Ev>
    a578:	4c 89 e7             	mov    %r12,%rdi
    a57b:	e8 40 ff ff ff       	callq  a4c0 <_Unwind_Resume@plt>
/home/rodne/dev/cProjects/cpputest/cpputest_build/../src/CppUTest/CommandLineTestRunner.cpp:118
        TestResult tr(*output_);
    a580:	48 89 ef             	mov    %rbp,%rdi
    a583:	e8 78 21 01 00       	callq  1c700 <_ZN10TestResultD1Ev>
    a588:	4c 89 e7             	mov    %r12,%rdi
    a58b:	e8 30 ff ff ff       	callq  a4c0 <_Unwind_Resume@plt>

000000000000a590 <_ZN21CommandLineTestRunner15runAllTestsMainEv.cold>:
_ZN21CommandLineTestRunner15runAllTestsMainEv():
/home/rodne/dev/cProjects/cpputest/cpputest_build/../src/CppUTest/CommandLineTestRunner.cpp:84 (discriminator 2)
    registry_->removePluginByName(DEF_PLUGIN_SET_POINTER);
    a590:	48 89 ef             	mov    %rbp,%rdi
    a593:	48 89 dd             	mov    %rbx,%rbp
    a596:	e8 35 80 00 00       	callq  125d0 <_ZN12SimpleStringD1Ev>
_ZN16SetPointerPluginD4Ev():
/home/rodne/dev/cProjects/cpputest/cpputest_build/../include/CppUTest/TestPlugin.h:89
//
///////////////////////////////////////////////////////////////////////////////

extern void CppUTestStore(void **location);

class SetPointerPlugin: public TestPlugin
    a59b:	48 8d 05 a6 c7 02 00 	lea    0x2c7a6(%rip),%rax        # 36d48 <_ZTV16SetPointerPlugin+0x10>
    a5a2:	4c 89 e7             	mov    %r12,%rdi
    a5a5:	48 89 44 24 10       	mov    %rax,0x10(%rsp)
    a5aa:	e8 21 0e 01 00       	callq  1b3d0 <_ZN10TestPluginD1Ev>
    a5af:	48 89 ef             	mov    %rbp,%rdi
    a5b2:	e8 09 ff ff ff       	callq  a4c0 <_Unwind_Resume@plt>
_ZN21CommandLineTestRunner15runAllTestsMainEv():
/home/rodne/dev/cProjects/cpputest/cpputest_build/../include/CppUTest/TestPlugin.h:89
    a5b7:	48 89 ef             	mov    %rbp,%rdi
    a5ba:	e8 11 80 00 00       	callq  125d0 <_ZN12SimpleStringD1Ev>
    a5bf:	4c 89 e7             	mov    %r12,%rdi
    a5c2:	e8 f9 fe ff ff       	callq  a4c0 <_Unwind_Resume@plt>
_ZN21CommandLineTestRunner15runAllTestsMainEv.cold():
/home/rodne/dev/cProjects/cpputest/cpputest_build/../include/CppUTest/TestPlugin.h:89
    a5c7:	90                   	nop

000000000000a5c8 <_ZN21CommandLineTestRunner11RunAllTestsEiPKPKc.cold>:
_ZN21CommandLineTestRunner11RunAllTestsEiPKPKc():
/home/rodne/dev/cProjects/cpputest/cpputest_build/../src/CppUTest/CommandLineTestRunner.cpp:58 (discriminator 3)
    TestRegistry::getCurrentRegistry()->removePluginByName(DEF_PLUGIN_MEM_LEAK);
    a5c8:	48 89 ef             	mov    %rbp,%rdi
    a5cb:	4c 89 ed             	mov    %r13,%rbp
    a5ce:	e8 fd 7f 00 00       	callq  125d0 <_ZN12SimpleStringD1Ev>
/home/rodne/dev/cProjects/cpputest/cpputest_build/../src/CppUTest/CommandLineTestRunner.cpp:46
    MemoryLeakWarningPlugin memLeakWarn(DEF_PLUGIN_MEM_LEAK);
    a5d3:	4c 89 e7             	mov    %r12,%rdi
    a5d6:	e8 f5 6e 00 00       	callq  114d0 <_ZN23MemoryLeakWarningPluginD1Ev>
_ZN17ConsoleTestOutputD4Ev():
/home/rodne/dev/cProjects/cpputest/cpputest_build/../include/CppUTest/TestOutput.h:121
public:
    explicit ConsoleTestOutput()
    {
    }
    virtual ~ConsoleTestOutput() _destructor_override
    {
    a5db:	4c 89 ff             	mov    %r15,%rdi
    a5de:	48 89 5c 24 10       	mov    %rbx,0x10(%rsp)
    a5e3:	e8 f8 07 01 00       	callq  1ade0 <_ZN10TestOutputD1Ev>
    a5e8:	48 89 ef             	mov    %rbp,%rdi
    a5eb:	e8 d0 fe ff ff       	callq  a4c0 <_Unwind_Resume@plt>
_ZN21CommandLineTestRunner11RunAllTestsEiPKPKc():
/home/rodne/dev/cProjects/cpputest/cpputest_build/../src/CppUTest/CommandLineTestRunner.cpp:51
        CommandLineTestRunner runner(ac, av, TestRegistry::getCurrentRegistry());
    a5f0:	48 89 ef             	mov    %rbp,%rdi
    a5f3:	4c 89 ed             	mov    %r13,%rbp
    a5f6:	e8 35 40 00 00       	callq  e630 <_ZN21CommandLineTestRunnerD1Ev>
    a5fb:	eb d6                	jmp    a5d3 <_ZN21CommandLineTestRunner11RunAllTestsEiPKPKc.cold+0xb>
    a5fd:	48 89 ef             	mov    %rbp,%rdi
    a600:	4c 89 e5             	mov    %r12,%rbp
    a603:	e8 c8 7f 00 00       	callq  125d0 <_ZN12SimpleStringD1Ev>
    a608:	eb d1                	jmp    a5db <_ZN21CommandLineTestRunner11RunAllTestsEiPKPKc.cold+0x13>

000000000000a60a <_ZN21CommandLineTestRunner21createCompositeOutputEP10TestOutputS1_.cold>:
_ZN21CommandLineTestRunner21createCompositeOutputEP10TestOutputS1_():
/home/rodne/dev/cProjects/cpputest/cpputest_build/../src/CppUTest/CommandLineTestRunner.cpp:176 (discriminator 1)
}

TestOutput* CommandLineTestRunner::createCompositeOutput(TestOutput* outputOne, TestOutput* outputTwo)
{
  CompositeTestOutput* composite = new CompositeTestOutput;
    a60a:	4c 89 e7             	mov    %r12,%rdi
    a60d:	ba b0 00 00 00       	mov    $0xb0,%edx
    a612:	48 8d 35 ef ae 01 00 	lea    0x1aeef(%rip),%rsi        # 25508 <_ZTS37TEST_GROUP_CppUTestGroupLearningTests+0x28>
    a619:	e8 12 5f 00 00       	callq  10530 <_ZdlPvPKci>
    a61e:	48 89 ef             	mov    %rbp,%rdi
    a621:	e8 9a fe ff ff       	callq  a4c0 <_Unwind_Resume@plt>

000000000000a626 <_ZN15JUnitTestOutput14writeXmlHeaderEv.cold>:
_ZN15JUnitTestOutput14writeXmlHeaderEv():
/home/rodne/dev/cProjects/cpputest/cpputest_build/../src/CppUTest/JUnitTestOutput.cpp:182 (discriminator 1)
    }
}

void JUnitTestOutput::writeXmlHeader()
{
    writeToFile("<?xml version=\"1.0\" encoding=\"UTF-8\" ?>\n");
    a626:	4c 89 e7             	mov    %r12,%rdi
    a629:	e8 a2 7f 00 00       	callq  125d0 <_ZN12SimpleStringD1Ev>
    a62e:	48 89 ef             	mov    %rbp,%rdi
    a631:	e8 8a fe ff ff       	callq  a4c0 <_Unwind_Resume@plt>

000000000000a636 <_ZN15JUnitTestOutput15writePropertiesEv.cold>:
_ZN15JUnitTestOutput15writePropertiesEv():
/home/rodne/dev/cProjects/cpputest/cpputest_build/../src/CppUTest/JUnitTestOutput.cpp:202 (discriminator 1)
}

void JUnitTestOutput::writeProperties()
{
    writeToFile("<properties>\n");
    writeToFile("</properties>\n");
    a636:	48 89 ef             	mov    %rbp,%rdi
    a639:	e8 92 7f 00 00       	callq  125d0 <_ZN12SimpleStringD1Ev>
    a63e:	4c 89 e7             	mov    %r12,%rdi
    a641:	e8 7a fe ff ff       	callq  a4c0 <_Unwind_Resume@plt>
/home/rodne/dev/cProjects/cpputest/cpputest_build/../src/CppUTest/JUnitTestOutput.cpp:201 (discriminator 1)
    writeToFile("<properties>\n");
    a646:	48 89 ef             	mov    %rbp,%rdi
    a649:	e8 82 7f 00 00       	callq  125d0 <_ZN12SimpleStringD1Ev>
    a64e:	4c 89 e7             	mov    %r12,%rdi
    a651:	e8 6a fe ff ff       	callq  a4c0 <_Unwind_Resume@plt>

000000000000a656 <_ZN15JUnitTestOutput15writeFileEndingEv.cold>:
_ZN15JUnitTestOutput15writeFileEndingEv():
/home/rodne/dev/cProjects/cpputest/cpputest_build/../src/CppUTest/JUnitTestOutput.cpp:264 (discriminator 1)
{
    writeToFile("<system-out>");
    writeToFile(encodeXmlText(impl_->stdOutput_));
    writeToFile("</system-out>\n");
    writeToFile("<system-err></system-err>\n");
    writeToFile("</testsuite>\n");
    a656:	48 89 ef             	mov    %rbp,%rdi
    a659:	e8 72 7f 00 00       	callq  125d0 <_ZN12SimpleStringD1Ev>
    a65e:	4c 89 e7             	mov    %r12,%rdi
    a661:	e8 5a fe ff ff       	callq  a4c0 <_Unwind_Resume@plt>
/home/rodne/dev/cProjects/cpputest/cpputest_build/../src/CppUTest/JUnitTestOutput.cpp:263 (discriminator 1)
    writeToFile("<system-err></system-err>\n");
    a666:	48 89 ef             	mov    %rbp,%rdi
    a669:	e8 62 7f 00 00       	callq  125d0 <_ZN12SimpleStringD1Ev>
    a66e:	4c 89 e7             	mov    %r12,%rdi
    a671:	e8 4a fe ff ff       	callq  a4c0 <_Unwind_Resume@plt>
/home/rodne/dev/cProjects/cpputest/cpputest_build/../src/CppUTest/JUnitTestOutput.cpp:262 (discriminator 1)
    writeToFile("</system-out>\n");
    a676:	48 89 ef             	mov    %rbp,%rdi
    a679:	e8 52 7f 00 00       	callq  125d0 <_ZN12SimpleStringD1Ev>
    a67e:	4c 89 e7             	mov    %r12,%rdi
    a681:	e8 3a fe ff ff       	callq  a4c0 <_Unwind_Resume@plt>
/home/rodne/dev/cProjects/cpputest/cpputest_build/../src/CppUTest/JUnitTestOutput.cpp:261 (discriminator 1)
    writeToFile(encodeXmlText(impl_->stdOutput_));
    a686:	48 89 ef             	mov    %rbp,%rdi
    a689:	e8 42 7f 00 00       	callq  125d0 <_ZN12SimpleStringD1Ev>
    a68e:	4c 89 e7             	mov    %r12,%rdi
    a691:	e8 2a fe ff ff       	callq  a4c0 <_Unwind_Resume@plt>
/home/rodne/dev/cProjects/cpputest/cpputest_build/../src/CppUTest/JUnitTestOutput.cpp:260 (discriminator 1)
    writeToFile("<system-out>");
    a696:	48 89 ef             	mov    %rbp,%rdi
    a699:	e8 32 7f 00 00       	callq  125d0 <_ZN12SimpleStringD1Ev>
    a69e:	4c 89 e7             	mov    %r12,%rdi
    a6a1:	e8 1a fe ff ff       	callq  a4c0 <_Unwind_Resume@plt>

000000000000a6a6 <_ZN15JUnitTestOutput20writeTestGroupToFileEv.cold>:
_ZN15JUnitTestOutput20writeTestGroupToFileEv():
/home/rodne/dev/cProjects/cpputest/cpputest_build/../src/CppUTest/JUnitTestOutput.cpp:269 (discriminator 1)
}

void JUnitTestOutput::writeTestGroupToFile()
{
    openFileForWrite(createFileName(impl_->results_.group_));
    a6a6:	4c 89 e7             	mov    %r12,%rdi
    a6a9:	e8 22 7f 00 00       	callq  125d0 <_ZN12SimpleStringD1Ev>
    a6ae:	48 89 ef             	mov    %rbp,%rdi
    a6b1:	e8 0a fe ff ff       	callq  a4c0 <_Unwind_Resume@plt>

000000000000a6b6 <_ZN15JUnitTestOutput14createFileNameERK12SimpleString.cold>:
_ZN15JUnitTestOutput14createFileNameERK12SimpleString():
/home/rodne/dev/cProjects/cpputest/cpputest_build/../src/CppUTest/JUnitTestOutput.cpp:158 (discriminator 4)
    return encodeFileName(fileName) + ".xml";
    a6b6:	4c 89 ff             	mov    %r15,%rdi
    a6b9:	e8 12 7f 00 00       	callq  125d0 <_ZN12SimpleStringD1Ev>
/home/rodne/dev/cProjects/cpputest/cpputest_build/../src/CppUTest/JUnitTestOutput.cpp:158 (discriminator 2)
    a6be:	4c 89 f7             	mov    %r14,%rdi
    a6c1:	e8 0a 7f 00 00       	callq  125d0 <_ZN12SimpleStringD1Ev>
/home/rodne/dev/cProjects/cpputest/cpputest_build/../src/CppUTest/JUnitTestOutput.cpp:152
    SimpleString fileName = "cpputest_";
    a6c6:	4c 89 e7             	mov    %r12,%rdi
    a6c9:	e8 02 7f 00 00       	callq  125d0 <_ZN12SimpleStringD1Ev>
    a6ce:	48 89 ef             	mov    %rbp,%rdi
    a6d1:	e8 ea fd ff ff       	callq  a4c0 <_Unwind_Resume@plt>

000000000000a6d6 <_ZN15JUnitTestOutput14encodeFileNameERK12SimpleString.cold>:
_ZN15JUnitTestOutput14encodeFileNameERK12SimpleString():
/home/rodne/dev/cProjects/cpputest/cpputest_build/../src/CppUTest/JUnitTestOutput.cpp:152
    a6d6:	4c 89 e7             	mov    %r12,%rdi
    a6d9:	e8 f2 7e 00 00       	callq  125d0 <_ZN12SimpleStringD1Ev>
    a6de:	48 89 ef             	mov    %rbp,%rdi
    a6e1:	e8 da fd ff ff       	callq  a4c0 <_Unwind_Resume@plt>

000000000000a6e6 <_ZN15JUnitTestOutput21writeTestSuiteSummaryEv.cold>:
_ZN15JUnitTestOutput21writeTestSuiteSummaryEv():
/home/rodne/dev/cProjects/cpputest/cpputest_build/../src/CppUTest/JUnitTestOutput.cpp:196 (discriminator 3)
    writeToFile(buf.asCharString());
    a6e6:	4c 89 ef             	mov    %r13,%rdi
    a6e9:	e8 e2 7e 00 00       	callq  125d0 <_ZN12SimpleStringD1Ev>
/home/rodne/dev/cProjects/cpputest/cpputest_build/../src/CppUTest/JUnitTestOutput.cpp:195
                            GetPlatformSpecificTimeString());
    a6ee:	4c 89 e7             	mov    %r12,%rdi
    a6f1:	e8 da 7e 00 00       	callq  125d0 <_ZN12SimpleStringD1Ev>
    a6f6:	48 89 ef             	mov    %rbp,%rdi
    a6f9:	e8 c2 fd ff ff       	callq  a4c0 <_Unwind_Resume@plt>

000000000000a6fe <_ZN15JUnitTestOutput14writeTestCasesEv.cold>:
_ZN15JUnitTestOutput14writeTestCasesEv():
/home/rodne/dev/cProjects/cpputest/cpputest_build/../src/CppUTest/JUnitTestOutput.cpp:239 (discriminator 2)
            writeToFile("<skipped />\n");
    a6fe:	4c 89 e7             	mov    %r12,%rdi
    a701:	e8 ca 7e 00 00       	callq  125d0 <_ZN12SimpleStringD1Ev>
/home/rodne/dev/cProjects/cpputest/cpputest_build/../src/CppUTest/JUnitTestOutput.cpp:230
                (int) cur->lineNumber_);
    a706:	4c 89 f7             	mov    %r14,%rdi
    a709:	e8 c2 7e 00 00       	callq  125d0 <_ZN12SimpleStringD1Ev>
    a70e:	48 89 ef             	mov    %rbp,%rdi
    a711:	e8 aa fd ff ff       	callq  a4c0 <_Unwind_Resume@plt>
/home/rodne/dev/cProjects/cpputest/cpputest_build/../src/CppUTest/JUnitTestOutput.cpp:241 (discriminator 2)
        writeToFile("</testcase>\n");
    a716:	4c 89 e7             	mov    %r12,%rdi
    a719:	e8 b2 7e 00 00       	callq  125d0 <_ZN12SimpleStringD1Ev>
    a71e:	eb e6                	jmp    a706 <_ZN15JUnitTestOutput14writeTestCasesEv.cold+0x8>
/home/rodne/dev/cProjects/cpputest/cpputest_build/../src/CppUTest/JUnitTestOutput.cpp:231 (discriminator 3)
        writeToFile(buf.asCharString());
    a720:	4c 89 e7             	mov    %r12,%rdi
    a723:	e8 a8 7e 00 00       	callq  125d0 <_ZN12SimpleStringD1Ev>
    a728:	eb dc                	jmp    a706 <_ZN15JUnitTestOutput14writeTestCasesEv.cold+0x8>

000000000000a72a <_ZN15JUnitTestOutput12writeFailureEP23JUnitTestCaseResultNode.cold>:
_ZN15JUnitTestOutput12writeFailureEP23JUnitTestCaseResultNode():
/home/rodne/dev/cProjects/cpputest/cpputest_build/../src/CppUTest/JUnitTestOutput.cpp:254 (discriminator 2)
    writeToFile("</failure>\n");
    a72a:	48 89 ef             	mov    %rbp,%rdi
    a72d:	e8 9e 7e 00 00       	callq  125d0 <_ZN12SimpleStringD1Ev>
/home/rodne/dev/cProjects/cpputest/cpputest_build/../src/CppUTest/JUnitTestOutput.cpp:252
            encodeXmlText(node->failure_->getMessage()).asCharString());
    a732:	4c 89 ef             	mov    %r13,%rdi
    a735:	e8 96 7e 00 00       	callq  125d0 <_ZN12SimpleStringD1Ev>
    a73a:	48 89 df             	mov    %rbx,%rdi
    a73d:	e8 7e fd ff ff       	callq  a4c0 <_Unwind_Resume@plt>
/home/rodne/dev/cProjects/cpputest/cpputest_build/../src/CppUTest/JUnitTestOutput.cpp:253 (discriminator 3)
    writeToFile(buf.asCharString());
    a742:	48 89 ef             	mov    %rbp,%rdi
    a745:	e8 86 7e 00 00       	callq  125d0 <_ZN12SimpleStringD1Ev>
    a74a:	eb e6                	jmp    a732 <_ZN15JUnitTestOutput12writeFailureEP23JUnitTestCaseResultNode.cold+0x8>
    a74c:	4c 89 ff             	mov    %r15,%rdi
    a74f:	e8 7c 7e 00 00       	callq  125d0 <_ZN12SimpleStringD1Ev>
    a754:	48 89 ef             	mov    %rbp,%rdi
    a757:	48 89 dd             	mov    %rbx,%rbp
    a75a:	e8 71 7e 00 00       	callq  125d0 <_ZN12SimpleStringD1Ev>
    a75f:	4c 89 f7             	mov    %r14,%rdi
    a762:	e8 69 7e 00 00       	callq  125d0 <_ZN12SimpleStringD1Ev>
    a767:	48 89 ef             	mov    %rbp,%rdi
    a76a:	e8 51 fd ff ff       	callq  a4c0 <_Unwind_Resume@plt>
_ZN15JUnitTestOutput12writeFailureEP23JUnitTestCaseResultNode.cold():
/home/rodne/dev/cProjects/cpputest/cpputest_build/../src/CppUTest/JUnitTestOutput.cpp:253 (discriminator 3)
    a76f:	90                   	nop

000000000000a770 <_ZN15JUnitTestOutput13encodeXmlTextERK12SimpleString.cold>:
_ZN15JUnitTestOutput13encodeXmlTextERK12SimpleString():
/home/rodne/dev/cProjects/cpputest/cpputest_build/../src/CppUTest/JUnitTestOutput.cpp:253 (discriminator 3)
    a770:	4c 89 e7             	mov    %r12,%rdi
    a773:	e8 58 7e 00 00       	callq  125d0 <_ZN12SimpleStringD1Ev>
    a778:	48 89 ef             	mov    %rbp,%rdi
    a77b:	e8 40 fd ff ff       	callq  a4c0 <_Unwind_Resume@plt>

000000000000a780 <_ZN15JUnitTestOutput12printFailureERK11TestFailure.cold>:
_ZN15JUnitTestOutput12printFailureERK11TestFailure():
/home/rodne/dev/cProjects/cpputest/cpputest_build/../src/CppUTest/JUnitTestOutput.cpp:307 (discriminator 1)

void JUnitTestOutput::printFailure(const TestFailure& failure)
{
    if (impl_->results_.tail_->failure_ == NULLPTR) {
        impl_->results_.failureCount_++;
        impl_->results_.tail_->failure_ = new TestFailure(failure);
    a780:	4c 89 e7             	mov    %r12,%rdi
    a783:	ba 33 01 00 00       	mov    $0x133,%edx
    a788:	48 8d 35 59 af 01 00 	lea    0x1af59(%rip),%rsi        # 256e8 <_ZTS21CommandLineTestRunner+0x158>
    a78f:	e8 9c 5d 00 00       	callq  10530 <_ZdlPvPKci>
    a794:	48 89 ef             	mov    %rbp,%rdi
    a797:	e8 24 fd ff ff       	callq  a4c0 <_Unwind_Resume@plt>

000000000000a79c <_ZN15JUnitTestOutput23printCurrentTestStartedERK10UtestShell.cold>:
_ZN15JUnitTestOutput23printCurrentTestStartedERK10UtestShell():
/home/rodne/dev/cProjects/cpputest/cpputest_build/../src/CppUTest/JUnitTestOutput.cpp:131 (discriminator 1)
    impl_->results_.group_ = test.getGroup();
    a79c:	48 89 ef             	mov    %rbp,%rdi
    a79f:	e8 2c 7e 00 00       	callq  125d0 <_ZN12SimpleStringD1Ev>
    a7a4:	4c 89 e7             	mov    %r12,%rdi
    a7a7:	e8 14 fd ff ff       	callq  a4c0 <_Unwind_Resume@plt>
/home/rodne/dev/cProjects/cpputest/cpputest_build/../src/CppUTest/JUnitTestOutput.cpp:143 (discriminator 1)
    impl_->results_.tail_->file_ = test.getFile();
    a7ac:	48 89 ef             	mov    %rbp,%rdi
    a7af:	e8 1c 7e 00 00       	callq  125d0 <_ZN12SimpleStringD1Ev>
    a7b4:	4c 89 e7             	mov    %r12,%rdi
    a7b7:	e8 04 fd ff ff       	callq  a4c0 <_Unwind_Resume@plt>
/home/rodne/dev/cProjects/cpputest/cpputest_build/../src/CppUTest/JUnitTestOutput.cpp:142 (discriminator 1)
    impl_->results_.tail_->name_ = test.getName();
    a7bc:	48 89 ef             	mov    %rbp,%rdi
    a7bf:	e8 0c 7e 00 00       	callq  125d0 <_ZN12SimpleStringD1Ev>
    a7c4:	4c 89 e7             	mov    %r12,%rdi
    a7c7:	e8 f4 fc ff ff       	callq  a4c0 <_Unwind_Resume@plt>
_ZN23JUnitTestCaseResultNodeC4Ev():
/home/rodne/dev/cProjects/cpputest/cpputest_build/../src/CppUTest/JUnitTestOutput.cpp:37
        execTime_(0), failure_(NULLPTR), ignored_(false), lineNumber_ (0), checkCount_ (0), next_(NULLPTR)
    a7cc:	4c 89 e7             	mov    %r12,%rdi
    a7cf:	e8 fc 7d 00 00       	callq  125d0 <_ZN12SimpleStringD1Ev>
_ZN15JUnitTestOutput23printCurrentTestStartedERK10UtestShell():
/home/rodne/dev/cProjects/cpputest/cpputest_build/../src/CppUTest/JUnitTestOutput.cpp:139 (discriminator 1)
        impl_->results_.tail_->next_ = new JUnitTestCaseResultNode;
    a7d4:	4c 89 e7             	mov    %r12,%rdi
    a7d7:	ba 8b 00 00 00       	mov    $0x8b,%edx
    a7dc:	48 8d 35 05 af 01 00 	lea    0x1af05(%rip),%rsi        # 256e8 <_ZTS21CommandLineTestRunner+0x158>
    a7e3:	e8 48 5d 00 00       	callq  10530 <_ZdlPvPKci>
    a7e8:	48 89 ef             	mov    %rbp,%rdi
    a7eb:	e8 d0 fc ff ff       	callq  a4c0 <_Unwind_Resume@plt>
_ZN23JUnitTestCaseResultNodeC4Ev():
/home/rodne/dev/cProjects/cpputest/cpputest_build/../src/CppUTest/JUnitTestOutput.cpp:37
        execTime_(0), failure_(NULLPTR), ignored_(false), lineNumber_ (0), checkCount_ (0), next_(NULLPTR)
    a7f0:	4c 89 e7             	mov    %r12,%rdi
    a7f3:	e8 d8 7d 00 00       	callq  125d0 <_ZN12SimpleStringD1Ev>
_ZN15JUnitTestOutput23printCurrentTestStartedERK10UtestShell():
/home/rodne/dev/cProjects/cpputest/cpputest_build/../src/CppUTest/JUnitTestOutput.cpp:136 (discriminator 1)
                = new JUnitTestCaseResultNode;
    a7f8:	4c 89 e7             	mov    %r12,%rdi
    a7fb:	ba 88 00 00 00       	mov    $0x88,%edx
    a800:	48 8d 35 e1 ae 01 00 	lea    0x1aee1(%rip),%rsi        # 256e8 <_ZTS21CommandLineTestRunner+0x158>
    a807:	e8 24 5d 00 00       	callq  10530 <_ZdlPvPKci>
    a80c:	48 89 ef             	mov    %rbp,%rdi
    a80f:	e8 ac fc ff ff       	callq  a4c0 <_Unwind_Resume@plt>

000000000000a814 <_ZN15JUnitTestOutputC2Ev.cold>:
_ZN19JUnitTestOutputImplC4Ev():
/home/rodne/dev/cProjects/cpputest/cpputest_build/../src/CppUTest/JUnitTestOutput.cpp:68
struct JUnitTestOutputImpl
    a814:	4c 89 ef             	mov    %r13,%rdi
    a817:	e8 b4 7d 00 00       	callq  125d0 <_ZN12SimpleStringD1Ev>
_ZN20JUnitTestGroupResultD4Ev():
/home/rodne/dev/cProjects/cpputest/cpputest_build/../src/CppUTest/JUnitTestOutput.cpp:51
struct JUnitTestGroupResult
    a81c:	4c 89 e7             	mov    %r12,%rdi
    a81f:	49 89 dc             	mov    %rbx,%r12
    a822:	e8 a9 7d 00 00       	callq  125d0 <_ZN12SimpleStringD1Ev>
_ZN15JUnitTestOutputC2Ev():
/home/rodne/dev/cProjects/cpputest/cpputest_build/../src/CppUTest/JUnitTestOutput.cpp:77 (discriminator 3)
    impl_(new JUnitTestOutputImpl)
    a827:	ba 4d 00 00 00       	mov    $0x4d,%edx
    a82c:	48 8d 35 b5 ae 01 00 	lea    0x1aeb5(%rip),%rsi        # 256e8 <_ZTS21CommandLineTestRunner+0x158>
    a833:	48 89 ef             	mov    %rbp,%rdi
    a836:	e8 f5 5c 00 00       	callq  10530 <_ZdlPvPKci>
/home/rodne/dev/cProjects/cpputest/cpputest_build/../src/CppUTest/JUnitTestOutput.cpp:77 (discriminator 1)
    a83b:	4c 89 f7             	mov    %r14,%rdi
    a83e:	e8 9d 05 01 00       	callq  1ade0 <_ZN10TestOutputD1Ev>
    a843:	4c 89 e7             	mov    %r12,%rdi
    a846:	e8 75 fc ff ff       	callq  a4c0 <_Unwind_Resume@plt>
_ZN15JUnitTestOutputC2Ev.cold():
/home/rodne/dev/cProjects/cpputest/cpputest_build/../src/CppUTest/JUnitTestOutput.cpp:77 (discriminator 1)
    a84b:	90                   	nop

000000000000a84c <_ZN15JUnitTestOutput20resetTestGroupResultEv.cold>:
_ZN15JUnitTestOutput20resetTestGroupResultEv():
/home/rodne/dev/cProjects/cpputest/cpputest_build/../src/CppUTest/JUnitTestOutput.cpp:91 (discriminator 1)
    impl_->results_.group_ = "";
    a84c:	48 89 ef             	mov    %rbp,%rdi
    a84f:	e8 7c 7d 00 00       	callq  125d0 <_ZN12SimpleStringD1Ev>
    a854:	4c 89 e7             	mov    %r12,%rdi
    a857:	e8 64 fc ff ff       	callq  a4c0 <_Unwind_Resume@plt>

000000000000a85c <_ZL19normal_operator_newm.part.0>:
_ZL31normal_operator_new_array_debugmPKcm.part.0():
/home/rodne/dev/cProjects/cpputest/cpputest_build/../src/CppUTest/MemoryLeakWarningPlugin.cpp:279
static void* normal_operator_new_array_nothrow (size_t size) UT_NOTHROW
{
    return PlatformSpecificMalloc(size);
}

static void* normal_operator_new_array_debug (size_t size, const char* /*file*/, size_t /*line*/) UT_THROW(std::bad_alloc)
    a85c:	50                   	push   %rax
    a85d:	58                   	pop    %rax
/home/rodne/dev/cProjects/cpputest/cpputest_build/../src/CppUTest/MemoryLeakWarningPlugin.cpp:282
{
    void* memory = PlatformSpecificMalloc(size);
    UT_THROW_BAD_ALLOC_WHEN_NULL(memory);
    a85e:	bf 08 00 00 00       	mov    $0x8,%edi
/home/rodne/dev/cProjects/cpputest/cpputest_build/../src/CppUTest/MemoryLeakWarningPlugin.cpp:279
static void* normal_operator_new_array_debug (size_t size, const char* /*file*/, size_t /*line*/) UT_THROW(std::bad_alloc)
    a863:	50                   	push   %rax
/home/rodne/dev/cProjects/cpputest/cpputest_build/../src/CppUTest/MemoryLeakWarningPlugin.cpp:282
    UT_THROW_BAD_ALLOC_WHEN_NULL(memory);
    a864:	e8 97 fa ff ff       	callq  a300 <__cxa_allocate_exception@plt>
    a869:	48 8b 15 60 e7 02 00 	mov    0x2e760(%rip),%rdx        # 38fd0 <_ZNSt9bad_allocD1Ev@GLIBCXX_3.4>
    a870:	48 8d 35 69 ce 02 00 	lea    0x2ce69(%rip),%rsi        # 376e0 <_ZTISt9bad_alloc@@GLIBCXX_3.4>
    a877:	48 89 c7             	mov    %rax,%rdi
_ZNSt9bad_allocC4Ev():
/usr/include/c++/9/new:57
   *  @c bad_alloc (or classes derived from it) is used to report allocation
   *  errors from the throwing forms of @c new.  */
  class bad_alloc : public exception 
  {
  public:
    bad_alloc() throw() { }
    a87a:	48 8d 05 2f ce 02 00 	lea    0x2ce2f(%rip),%rax        # 376b0 <_ZTVSt9bad_alloc@@GLIBCXX_3.4+0x10>
    a881:	48 89 07             	mov    %rax,(%rdi)
_ZL31normal_operator_new_array_debugmPKcm.part.0():
/home/rodne/dev/cProjects/cpputest/cpputest_build/../src/CppUTest/MemoryLeakWarningPlugin.cpp:282
    a884:	e8 27 fc ff ff       	callq  a4b0 <__cxa_throw@plt>

000000000000a889 <_ZL31normal_operator_new_array_debugmPKcm.cold>:
_ZL31normal_operator_new_array_debugmPKcm.cold():
/home/rodne/dev/cProjects/cpputest/cpputest_build/../src/CppUTest/MemoryLeakWarningPlugin.cpp:282
    a889:	e8 ce ff ff ff       	callq  a85c <_ZL19normal_operator_newm.part.0>

000000000000a88e <_ZL25normal_operator_new_arraym.cold>:
_ZL25normal_operator_new_arraym.cold():
/home/rodne/dev/cProjects/cpputest/cpputest_build/../src/CppUTest/MemoryLeakWarningPlugin.cpp:284
    return memory;
}
    a88e:	e8 c9 ff ff ff       	callq  a85c <_ZL19normal_operator_newm.part.0>

000000000000a893 <_ZL25normal_operator_new_debugmPKcm.cold>:
_ZL25normal_operator_new_debugmPKcm.cold():
/home/rodne/dev/cProjects/cpputest/cpputest_build/../src/CppUTest/MemoryLeakWarningPlugin.cpp:272
}
    a893:	e8 c4 ff ff ff       	callq  a85c <_ZL19normal_operator_newm.part.0>

000000000000a898 <_ZL19normal_operator_newm.cold>:
_ZL19normal_operator_newm.cold():
/home/rodne/dev/cProjects/cpputest/cpputest_build/../src/CppUTest/MemoryLeakWarningPlugin.cpp:265
}
    a898:	e8 bf ff ff ff       	callq  a85c <_ZL19normal_operator_newm.part.0>
/home/rodne/dev/cProjects/cpputest/cpputest_build/../src/CppUTest/MemoryLeakWarningPlugin.cpp:253
}
    a89d:	90                   	nop

000000000000a89e <_ZN23MemoryLeakWarningPlugin17getGlobalDetectorEv.cold>:
_ZdlPvm():
/home/rodne/dev/cProjects/cpputest/cpputest_build/../src/CppUTest/MemoryLeakWarningPlugin.cpp:348 (discriminator 1)
}

#if __cplusplus >= 201402L
void operator delete (void* mem, size_t) UT_NOTHROW
{
    operator_delete_fptr(mem);
    a89e:	4c 89 e7             	mov    %r12,%rdi
    a8a1:	ff 15 b9 e7 02 00    	callq  *0x2e7b9(%rip)        # 39060 <_ZL20operator_delete_fptr>
    a8a7:	48 89 ef             	mov    %rbp,%rdi
    a8aa:	e8 11 fc ff ff       	callq  a4c0 <_Unwind_Resume@plt>

000000000000a8af <_ZL21mem_leak_operator_newm.cold>:
_ZL21mem_leak_operator_newm.cold():
/home/rodne/dev/cProjects/cpputest/cpputest_build/../src/CppUTest/MemoryLeakWarningPlugin.cpp:348 (discriminator 1)
    a8af:	e8 a8 ff ff ff       	callq  a85c <_ZL19normal_operator_newm.part.0>

000000000000a8b4 <_ZL27mem_leak_operator_new_debugmPKcm.cold>:
_ZL27mem_leak_operator_new_debugmPKcm.cold():
/home/rodne/dev/cProjects/cpputest/cpputest_build/../src/CppUTest/MemoryLeakWarningPlugin.cpp:203
}
    a8b4:	e8 a3 ff ff ff       	callq  a85c <_ZL19normal_operator_newm.part.0>

000000000000a8b9 <_ZL27mem_leak_operator_new_arraym.cold>:
_ZL27mem_leak_operator_new_arraym.cold():
/home/rodne/dev/cProjects/cpputest/cpputest_build/../src/CppUTest/MemoryLeakWarningPlugin.cpp:215
}
    a8b9:	e8 9e ff ff ff       	callq  a85c <_ZL19normal_operator_newm.part.0>

000000000000a8be <_ZL33mem_leak_operator_new_array_debugmPKcm.cold>:
_ZL33mem_leak_operator_new_array_debugmPKcm.cold():
/home/rodne/dev/cProjects/cpputest/cpputest_build/../src/CppUTest/MemoryLeakWarningPlugin.cpp:222
}
    a8be:	e8 99 ff ff ff       	callq  a85c <_ZL19normal_operator_newm.part.0>

000000000000a8c3 <_ZL44threadsafe_mem_leak_operator_new_array_debugmPKcm.cold>:
_ZL44threadsafe_mem_leak_operator_new_array_debugmPKcm.cold():
/home/rodne/dev/cProjects/cpputest/cpputest_build/../src/CppUTest/MemoryLeakWarningPlugin.cpp:179 (discriminator 1)
    UT_THROW_BAD_ALLOC_WHEN_NULL(memory);
    a8c3:	bf 08 00 00 00       	mov    $0x8,%edi
threadsafe_mem_leak_operator_new_array_debug():
/home/rodne/dev/cProjects/cpputest/cpputest_build/../src/CppUTest/MemoryLeakWarningPlugin.cpp:179 (discriminator 1)
    a8c8:	e8 33 fa ff ff       	callq  a300 <__cxa_allocate_exception@plt>
    a8cd:	48 8b 15 fc e6 02 00 	mov    0x2e6fc(%rip),%rdx        # 38fd0 <_ZNSt9bad_allocD1Ev@GLIBCXX_3.4>
    a8d4:	48 8d 35 05 ce 02 00 	lea    0x2ce05(%rip),%rsi        # 376e0 <_ZTISt9bad_alloc@@GLIBCXX_3.4>
    a8db:	48 89 c7             	mov    %rax,%rdi
_ZNSt9bad_allocC4Ev():
/usr/include/c++/9/new:57 (discriminator 1)
    a8de:	48 8d 05 cb cd 02 00 	lea    0x2cdcb(%rip),%rax        # 376b0 <_ZTVSt9bad_alloc@@GLIBCXX_3.4+0x10>
    a8e5:	48 89 07             	mov    %rax,(%rdi)
threadsafe_mem_leak_operator_new_array_debug():
/home/rodne/dev/cProjects/cpputest/cpputest_build/../src/CppUTest/MemoryLeakWarningPlugin.cpp:179 (discriminator 1)
    a8e8:	e8 c3 fb ff ff       	callq  a4b0 <__cxa_throw@plt>
    a8ed:	f3 0f 1e fa          	endbr64 
    a8f1:	49 89 c4             	mov    %rax,%r12
_ZN18MemLeakScopedMutexD4Ev():
/home/rodne/dev/cProjects/cpputest/cpputest_build/../src/CppUTest/MemoryLeakWarningPlugin.cpp:39
class MemLeakScopedMutex
    a8f4:	48 89 ef             	mov    %rbp,%rdi
    a8f7:	e8 24 a7 00 00       	callq  15020 <_ZN15ScopedMutexLockD1Ev>
    a8fc:	4c 89 e7             	mov    %r12,%rdi
    a8ff:	e8 bc fb ff ff       	callq  a4c0 <_Unwind_Resume@plt>

000000000000a904 <_ZL26threadsafe_mem_leak_mallocmPKcm.cold>:
    a904:	4c 89 f7             	mov    %r14,%rdi
    a907:	e8 14 a7 00 00       	callq  15020 <_ZN15ScopedMutexLockD1Ev>
    a90c:	48 89 ef             	mov    %rbp,%rdi
    a90f:	e8 ac fb ff ff       	callq  a4c0 <_Unwind_Resume@plt>

000000000000a914 <_ZL27threadsafe_mem_leak_reallocPvmPKcm.cold>:
    a914:	4c 89 ff             	mov    %r15,%rdi
    a917:	e8 04 a7 00 00       	callq  15020 <_ZN15ScopedMutexLockD1Ev>
    a91c:	48 89 df             	mov    %rbx,%rdi
    a91f:	e8 9c fb ff ff       	callq  a4c0 <_Unwind_Resume@plt>

000000000000a924 <_ZL24threadsafe_mem_leak_freePvPKcm.cold>:
    a924:	4c 89 f7             	mov    %r14,%rdi
    a927:	e8 f4 a6 00 00       	callq  15020 <_ZN15ScopedMutexLockD1Ev>
    a92c:	48 89 ef             	mov    %rbp,%rdi
    a92f:	e8 8c fb ff ff       	callq  a4c0 <_Unwind_Resume@plt>

000000000000a934 <_ZL32threadsafe_mem_leak_operator_newm.cold>:
_ZL32threadsafe_mem_leak_operator_newm.cold():
/home/rodne/dev/cProjects/cpputest/cpputest_build/../src/CppUTest/MemoryLeakWarningPlugin.cpp:143 (discriminator 1)
    UT_THROW_BAD_ALLOC_WHEN_NULL(memory);
    a934:	bf 08 00 00 00       	mov    $0x8,%edi
threadsafe_mem_leak_operator_new():
/home/rodne/dev/cProjects/cpputest/cpputest_build/../src/CppUTest/MemoryLeakWarningPlugin.cpp:143 (discriminator 1)
    a939:	e8 c2 f9 ff ff       	callq  a300 <__cxa_allocate_exception@plt>
    a93e:	48 8b 15 8b e6 02 00 	mov    0x2e68b(%rip),%rdx        # 38fd0 <_ZNSt9bad_allocD1Ev@GLIBCXX_3.4>
    a945:	48 8d 35 94 cd 02 00 	lea    0x2cd94(%rip),%rsi        # 376e0 <_ZTISt9bad_alloc@@GLIBCXX_3.4>
    a94c:	48 89 c7             	mov    %rax,%rdi
_ZNSt9bad_allocC4Ev():
/usr/include/c++/9/new:57 (discriminator 1)
    a94f:	48 8d 05 5a cd 02 00 	lea    0x2cd5a(%rip),%rax        # 376b0 <_ZTVSt9bad_alloc@@GLIBCXX_3.4+0x10>
    a956:	48 89 07             	mov    %rax,(%rdi)
threadsafe_mem_leak_operator_new():
/home/rodne/dev/cProjects/cpputest/cpputest_build/../src/CppUTest/MemoryLeakWarningPlugin.cpp:143 (discriminator 1)
    a959:	e8 52 fb ff ff       	callq  a4b0 <__cxa_throw@plt>
    a95e:	f3 0f 1e fa          	endbr64 
    a962:	49 89 c4             	mov    %rax,%r12
_ZN18MemLeakScopedMutexD4Ev():
/home/rodne/dev/cProjects/cpputest/cpputest_build/../src/CppUTest/MemoryLeakWarningPlugin.cpp:39
class MemLeakScopedMutex
    a965:	48 89 ef             	mov    %rbp,%rdi
    a968:	e8 b3 a6 00 00       	callq  15020 <_ZN15ScopedMutexLockD1Ev>
    a96d:	4c 89 e7             	mov    %r12,%rdi
    a970:	e8 4b fb ff ff       	callq  a4c0 <_Unwind_Resume@plt>

000000000000a975 <_ZL38threadsafe_mem_leak_operator_new_arraym.cold>:
_ZL38threadsafe_mem_leak_operator_new_arraym.cold():
/home/rodne/dev/cProjects/cpputest/cpputest_build/../src/CppUTest/MemoryLeakWarningPlugin.cpp:165 (discriminator 1)
    UT_THROW_BAD_ALLOC_WHEN_NULL(memory);
    a975:	bf 08 00 00 00       	mov    $0x8,%edi
threadsafe_mem_leak_operator_new_array():
/home/rodne/dev/cProjects/cpputest/cpputest_build/../src/CppUTest/MemoryLeakWarningPlugin.cpp:165 (discriminator 1)
    a97a:	e8 81 f9 ff ff       	callq  a300 <__cxa_allocate_exception@plt>
    a97f:	48 8b 15 4a e6 02 00 	mov    0x2e64a(%rip),%rdx        # 38fd0 <_ZNSt9bad_allocD1Ev@GLIBCXX_3.4>
    a986:	48 8d 35 53 cd 02 00 	lea    0x2cd53(%rip),%rsi        # 376e0 <_ZTISt9bad_alloc@@GLIBCXX_3.4>
    a98d:	48 89 c7             	mov    %rax,%rdi
_ZNSt9bad_allocC4Ev():
/usr/include/c++/9/new:57 (discriminator 1)
    a990:	48 8d 05 19 cd 02 00 	lea    0x2cd19(%rip),%rax        # 376b0 <_ZTVSt9bad_alloc@@GLIBCXX_3.4+0x10>
    a997:	48 89 07             	mov    %rax,(%rdi)
threadsafe_mem_leak_operator_new_array():
/home/rodne/dev/cProjects/cpputest/cpputest_build/../src/CppUTest/MemoryLeakWarningPlugin.cpp:165 (discriminator 1)
    a99a:	e8 11 fb ff ff       	callq  a4b0 <__cxa_throw@plt>
    a99f:	f3 0f 1e fa          	endbr64 
    a9a3:	49 89 c4             	mov    %rax,%r12
_ZN18MemLeakScopedMutexD4Ev():
/home/rodne/dev/cProjects/cpputest/cpputest_build/../src/CppUTest/MemoryLeakWarningPlugin.cpp:39
class MemLeakScopedMutex
    a9a6:	48 89 ef             	mov    %rbp,%rdi
    a9a9:	e8 72 a6 00 00       	callq  15020 <_ZN15ScopedMutexLockD1Ev>
    a9ae:	4c 89 e7             	mov    %r12,%rdi
    a9b1:	e8 0a fb ff ff       	callq  a4c0 <_Unwind_Resume@plt>

000000000000a9b6 <_ZL38threadsafe_mem_leak_operator_new_debugmPKcm.cold>:
_ZL38threadsafe_mem_leak_operator_new_debugmPKcm.cold():
/home/rodne/dev/cProjects/cpputest/cpputest_build/../src/CppUTest/MemoryLeakWarningPlugin.cpp:157 (discriminator 1)
    UT_THROW_BAD_ALLOC_WHEN_NULL(memory);
    a9b6:	bf 08 00 00 00       	mov    $0x8,%edi
threadsafe_mem_leak_operator_new_debug():
/home/rodne/dev/cProjects/cpputest/cpputest_build/../src/CppUTest/MemoryLeakWarningPlugin.cpp:157 (discriminator 1)
    a9bb:	e8 40 f9 ff ff       	callq  a300 <__cxa_allocate_exception@plt>
    a9c0:	48 8b 15 09 e6 02 00 	mov    0x2e609(%rip),%rdx        # 38fd0 <_ZNSt9bad_allocD1Ev@GLIBCXX_3.4>
    a9c7:	48 8d 35 12 cd 02 00 	lea    0x2cd12(%rip),%rsi        # 376e0 <_ZTISt9bad_alloc@@GLIBCXX_3.4>
    a9ce:	48 89 c7             	mov    %rax,%rdi
_ZNSt9bad_allocC4Ev():
/usr/include/c++/9/new:57 (discriminator 1)
    a9d1:	48 8d 05 d8 cc 02 00 	lea    0x2ccd8(%rip),%rax        # 376b0 <_ZTVSt9bad_alloc@@GLIBCXX_3.4+0x10>
    a9d8:	48 89 07             	mov    %rax,(%rdi)
threadsafe_mem_leak_operator_new_debug():
/home/rodne/dev/cProjects/cpputest/cpputest_build/../src/CppUTest/MemoryLeakWarningPlugin.cpp:157 (discriminator 1)
    a9db:	e8 d0 fa ff ff       	callq  a4b0 <__cxa_throw@plt>
    a9e0:	f3 0f 1e fa          	endbr64 
    a9e4:	49 89 c4             	mov    %rax,%r12
_ZN18MemLeakScopedMutexD4Ev():
/home/rodne/dev/cProjects/cpputest/cpputest_build/../src/CppUTest/MemoryLeakWarningPlugin.cpp:39
class MemLeakScopedMutex
    a9e7:	48 89 ef             	mov    %rbp,%rdi
    a9ea:	e8 31 a6 00 00       	callq  15020 <_ZN15ScopedMutexLockD1Ev>
    a9ef:	4c 89 e7             	mov    %r12,%rdi
    a9f2:	e8 c9 fa ff ff       	callq  a4c0 <_Unwind_Resume@plt>
_ZL38threadsafe_mem_leak_operator_new_debugmPKcm.cold():
/home/rodne/dev/cProjects/cpputest/cpputest_build/../src/CppUTest/MemoryLeakWarningPlugin.cpp:39
    a9f7:	90                   	nop

000000000000a9f8 <_ZN23MemoryLeakWarningPluginC2ERK12SimpleStringP18MemoryLeakDetector.cold>:
_ZN23MemoryLeakWarningPluginC2ERK12SimpleStringP18MemoryLeakDetector():
/home/rodne/dev/cProjects/cpputest/cpputest_build/../src/CppUTest/MemoryLeakWarningPlugin.cpp:616
{
    expectedLeaks_ = n;
}

MemoryLeakWarningPlugin::MemoryLeakWarningPlugin(const SimpleString& name, MemoryLeakDetector* localDetector) :
    TestPlugin(name), ignoreAllWarnings_(false), destroyGlobalDetectorAndTurnOfMemoryLeakDetectionInDestructor_(false), expectedLeaks_(0)
    a9f8:	48 89 ef             	mov    %rbp,%rdi
    a9fb:	e8 d0 09 01 00       	callq  1b3d0 <_ZN10TestPluginD1Ev>
    aa00:	4c 89 e7             	mov    %r12,%rdi
    aa03:	e8 b8 fa ff ff       	callq  a4c0 <_Unwind_Resume@plt>

000000000000aa08 <_Z26crash_on_allocation_numberj.cold>:
_Z26crash_on_allocation_numberj():
/home/rodne/dev/cProjects/cpputest/cpputest_build/../src/CppUTest/MemoryLeakWarningPlugin.cpp:531 (discriminator 3)
    static CrashOnAllocationAllocator crashAllocator;
    aa08:	48 8d 3d 29 ea 02 00 	lea    0x2ea29(%rip),%rdi        # 39438 <_ZGVZ26crash_on_allocation_numberjE14crashAllocator>
    aa0f:	e8 fc f8 ff ff       	callq  a310 <__cxa_guard_abort@plt>
    aa14:	48 89 ef             	mov    %rbp,%rdi
    aa17:	e8 a4 fa ff ff       	callq  a4c0 <_Unwind_Resume@plt>

000000000000aa1c <_ZN23MemoryLeakWarningPlugin14postTestActionER10UtestShellR10TestResult.cold>:
_ZN23MemoryLeakWarningPlugin14postTestActionER10UtestShellR10TestResult():
/home/rodne/dev/cProjects/cpputest/cpputest_build/../src/CppUTest/MemoryLeakWarningPlugin.cpp:650 (discriminator 3)
    if (!ignoreAllWarnings_ && expectedLeaks_ != leaks && failureCount_ == result.getFailureCount()) {
        if(MemoryLeakWarningPlugin::areNewDeleteOverloaded()) {
            TestFailure f(&test, memLeakDetector_->report(mem_leak_period_checking));
            result.addFailure(f);
        } else if(expectedLeaks_ > 0) {
            result.print(StringFromFormat("Warning: Expected %d leak(s), but leak detection was disabled", (int) expectedLeaks_).asCharString());
    aa1c:	4c 89 ef             	mov    %r13,%rdi
    aa1f:	e8 ac 7b 00 00       	callq  125d0 <_ZN12SimpleStringD1Ev>
    aa24:	48 89 ef             	mov    %rbp,%rdi
    aa27:	e8 94 fa ff ff       	callq  a4c0 <_Unwind_Resume@plt>
/home/rodne/dev/cProjects/cpputest/cpputest_build/../src/CppUTest/MemoryLeakWarningPlugin.cpp:647
            TestFailure f(&test, memLeakDetector_->report(mem_leak_period_checking));
    aa2c:	4c 89 ef             	mov    %r13,%rdi
    aa2f:	e8 ac ad 00 00       	callq  157e0 <_ZN11TestFailureD1Ev>
    aa34:	48 89 ef             	mov    %rbp,%rdi
    aa37:	e8 84 fa ff ff       	callq  a4c0 <_Unwind_Resume@plt>
    aa3c:	4c 89 f7             	mov    %r14,%rdi
    aa3f:	e8 8c 7b 00 00       	callq  125d0 <_ZN12SimpleStringD1Ev>
    aa44:	48 89 ef             	mov    %rbp,%rdi
    aa47:	e8 74 fa ff ff       	callq  a4c0 <_Unwind_Resume@plt>

000000000000aa4c <_ZN34GlobalSimpleStringMemoryAccountantC2Ev.cold>:
_ZN34GlobalSimpleStringMemoryAccountantC2Ev():
/home/rodne/dev/cProjects/cpputest/cpputest_build/../src/CppUTest/SimpleString.cpp:52 (discriminator 1)


GlobalSimpleStringMemoryAccountant::GlobalSimpleStringMemoryAccountant()
    : allocator_(NULLPTR)
{
    accountant_ = new MemoryAccountant();
    aa4c:	48 89 ef             	mov    %rbp,%rdi
    aa4f:	ba 34 00 00 00       	mov    $0x34,%edx
    aa54:	48 8d 35 55 ae 01 00 	lea    0x1ae55(%rip),%rsi        # 258b0 <_ZTS25MemoryLeakWarningReporter+0x20>
    aa5b:	e8 d0 5a 00 00       	callq  10530 <_ZdlPvPKci>
    aa60:	4c 89 e7             	mov    %r12,%rdi
    aa63:	e8 58 fa ff ff       	callq  a4c0 <_Unwind_Resume@plt>

000000000000aa68 <_ZN34GlobalSimpleStringMemoryAccountant5startEv.cold>:
_ZN34GlobalSimpleStringMemoryAccountant5startEv():
/home/rodne/dev/cProjects/cpputest/cpputest_build/../src/CppUTest/SimpleString.cpp:79 (discriminator 1)
void GlobalSimpleStringMemoryAccountant::start()
{
    if (allocator_ != NULLPTR)
      return;

    allocator_ = new AccountingTestMemoryAllocator(*accountant_, SimpleString::getStringAllocator());
    aa68:	48 89 ef             	mov    %rbp,%rdi
    aa6b:	ba 4f 00 00 00       	mov    $0x4f,%edx
    aa70:	48 8d 35 39 ae 01 00 	lea    0x1ae39(%rip),%rsi        # 258b0 <_ZTS25MemoryLeakWarningReporter+0x20>
    aa77:	e8 b4 5a 00 00       	callq  10530 <_ZdlPvPKci>
    aa7c:	4c 89 e7             	mov    %r12,%rdi
    aa7f:	e8 3c fa ff ff       	callq  a4c0 <_Unwind_Resume@plt>

000000000000aa84 <_ZNK12SimpleString9subStringEmm.cold>:
_ZN12SimpleString24deallocateInternalBufferEv():
/home/rodne/dev/cProjects/cpputest/cpputest_build/../src/CppUTest/SimpleString.cpp:237
    return 0;
}

void SimpleString::deallocateInternalBuffer()
{
    if (buffer_) {
    aa84:	48 8b 3c 24          	mov    (%rsp),%rdi
    aa88:	48 85 ff             	test   %rdi,%rdi
    aa8b:	74 16                	je     aaa3 <_ZNK12SimpleString9subStringEmm.cold+0x1f>
/home/rodne/dev/cProjects/cpputest/cpputest_build/../src/CppUTest/SimpleString.cpp:238
        deallocStringBuffer(buffer_, bufferSize_, __FILE__, __LINE__);
    aa8d:	48 8b 74 24 08       	mov    0x8(%rsp),%rsi
    aa92:	b9 ee 00 00 00       	mov    $0xee,%ecx
    aa97:	48 8d 15 12 ae 01 00 	lea    0x1ae12(%rip),%rdx        # 258b0 <_ZTS25MemoryLeakWarningReporter+0x20>
    aa9e:	e8 0d 74 00 00       	callq  11eb0 <_ZN12SimpleString19deallocStringBufferEPcmPKcm>
/home/rodne/dev/cProjects/cpputest/cpputest_build/../src/CppUTest/SimpleString.cpp:240
        buffer_ = NULLPTR;
        bufferSize_ = 0;
    aaa3:	48 89 ef             	mov    %rbp,%rdi
    aaa6:	e8 15 fa ff ff       	callq  a4c0 <_Unwind_Resume@plt>
_ZNK12SimpleString9subStringEmm.cold():
/home/rodne/dev/cProjects/cpputest/cpputest_build/../src/CppUTest/SimpleString.cpp:240
    aaab:	90                   	nop

000000000000aaac <_ZNK12SimpleString14containsNoCaseERKS_.cold>:
_ZN12SimpleString24deallocateInternalBufferEv():
/home/rodne/dev/cProjects/cpputest/cpputest_build/../src/CppUTest/SimpleString.cpp:237 (discriminator 1)
    if (buffer_) {
    aaac:	48 8b 3c 24          	mov    (%rsp),%rdi
    aab0:	48 85 ff             	test   %rdi,%rdi
    aab3:	74 16                	je     aacb <_ZNK12SimpleString14containsNoCaseERKS_.cold+0x1f>
/home/rodne/dev/cProjects/cpputest/cpputest_build/../src/CppUTest/SimpleString.cpp:238
        deallocStringBuffer(buffer_, bufferSize_, __FILE__, __LINE__);
    aab5:	48 8b 74 24 08       	mov    0x8(%rsp),%rsi
    aaba:	b9 ee 00 00 00       	mov    $0xee,%ecx
    aabf:	48 8d 15 ea ad 01 00 	lea    0x1adea(%rip),%rdx        # 258b0 <_ZTS25MemoryLeakWarningReporter+0x20>
    aac6:	e8 e5 73 00 00       	callq  11eb0 <_ZN12SimpleString19deallocStringBufferEPcmPKcm>
/home/rodne/dev/cProjects/cpputest/cpputest_build/../src/CppUTest/SimpleString.cpp:240
        bufferSize_ = 0;
    aacb:	48 89 ef             	mov    %rbp,%rdi
    aace:	e8 ed f9 ff ff       	callq  a4c0 <_Unwind_Resume@plt>
_ZNK12SimpleString14containsNoCaseERKS_.cold():
/home/rodne/dev/cProjects/cpputest/cpputest_build/../src/CppUTest/SimpleString.cpp:240
    aad3:	90                   	nop

000000000000aad4 <_ZNK12SimpleString12equalsNoCaseERKS_.cold>:
_ZN12SimpleString24deallocateInternalBufferEv():
/home/rodne/dev/cProjects/cpputest/cpputest_build/../src/CppUTest/SimpleString.cpp:237 (discriminator 1)
    if (buffer_) {
    aad4:	48 8b 7c 24 10       	mov    0x10(%rsp),%rdi
    aad9:	48 85 ff             	test   %rdi,%rdi
    aadc:	74 16                	je     aaf4 <_ZNK12SimpleString12equalsNoCaseERKS_.cold+0x20>
/home/rodne/dev/cProjects/cpputest/cpputest_build/../src/CppUTest/SimpleString.cpp:238
        deallocStringBuffer(buffer_, bufferSize_, __FILE__, __LINE__);
    aade:	48 8b 74 24 18       	mov    0x18(%rsp),%rsi
    aae3:	b9 ee 00 00 00       	mov    $0xee,%ecx
    aae8:	48 8d 15 c1 ad 01 00 	lea    0x1adc1(%rip),%rdx        # 258b0 <_ZTS25MemoryLeakWarningReporter+0x20>
    aaef:	e8 bc 73 00 00       	callq  11eb0 <_ZN12SimpleString19deallocStringBufferEPcmPKcm>
/home/rodne/dev/cProjects/cpputest/cpputest_build/../src/CppUTest/SimpleString.cpp:240
        bufferSize_ = 0;
    aaf4:	48 89 ef             	mov    %rbp,%rdi
    aaf7:	e8 c4 f9 ff ff       	callq  a4c0 <_Unwind_Resume@plt>

000000000000aafc <_ZNK12SimpleStringplERKS_.cold>:
/home/rodne/dev/cProjects/cpputest/cpputest_build/../src/CppUTest/SimpleString.cpp:237
    if (buffer_) {
    aafc:	49 8b 3c 24          	mov    (%r12),%rdi
    ab00:	48 85 ff             	test   %rdi,%rdi
    ab03:	74 16                	je     ab1b <_ZNK12SimpleStringplERKS_.cold+0x1f>
/home/rodne/dev/cProjects/cpputest/cpputest_build/../src/CppUTest/SimpleString.cpp:238
        deallocStringBuffer(buffer_, bufferSize_, __FILE__, __LINE__);
    ab05:	49 8b 74 24 08       	mov    0x8(%r12),%rsi
    ab0a:	b9 ee 00 00 00       	mov    $0xee,%ecx
    ab0f:	48 8d 15 9a ad 01 00 	lea    0x1ad9a(%rip),%rdx        # 258b0 <_ZTS25MemoryLeakWarningReporter+0x20>
    ab16:	e8 95 73 00 00       	callq  11eb0 <_ZN12SimpleString19deallocStringBufferEPcmPKcm>
/home/rodne/dev/cProjects/cpputest/cpputest_build/../src/CppUTest/SimpleString.cpp:240
        bufferSize_ = 0;
    ab1b:	48 89 ef             	mov    %rbp,%rdi
    ab1e:	e8 9d f9 ff ff       	callq  a4c0 <_Unwind_Resume@plt>
_ZNK12SimpleStringplERKS_.cold():
/home/rodne/dev/cProjects/cpputest/cpputest_build/../src/CppUTest/SimpleString.cpp:240
    ab23:	90                   	nop

000000000000ab24 <_ZN12SimpleString22padStringsToSameLengthERS_S0_c.cold>:
_ZN12SimpleString24deallocateInternalBufferEv():
/home/rodne/dev/cProjects/cpputest/cpputest_build/../src/CppUTest/SimpleString.cpp:237 (discriminator 4)
    if (buffer_) {
    ab24:	48 8b 7c 24 10       	mov    0x10(%rsp),%rdi
    ab29:	48 85 ff             	test   %rdi,%rdi
    ab2c:	74 16                	je     ab44 <_ZN12SimpleString22padStringsToSameLengthERS_S0_c.cold+0x20>
/home/rodne/dev/cProjects/cpputest/cpputest_build/../src/CppUTest/SimpleString.cpp:238
        deallocStringBuffer(buffer_, bufferSize_, __FILE__, __LINE__);
    ab2e:	48 8b 74 24 18       	mov    0x18(%rsp),%rsi
    ab33:	b9 ee 00 00 00       	mov    $0xee,%ecx
    ab38:	48 8d 15 71 ad 01 00 	lea    0x1ad71(%rip),%rdx        # 258b0 <_ZTS25MemoryLeakWarningReporter+0x20>
    ab3f:	e8 6c 73 00 00       	callq  11eb0 <_ZN12SimpleString19deallocStringBufferEPcmPKcm>
/home/rodne/dev/cProjects/cpputest/cpputest_build/../src/CppUTest/SimpleString.cpp:237 (discriminator 2)
    if (buffer_) {
    ab44:	48 8b 3c 24          	mov    (%rsp),%rdi
    ab48:	48 85 ff             	test   %rdi,%rdi
    ab4b:	74 16                	je     ab63 <_ZN12SimpleString22padStringsToSameLengthERS_S0_c.cold+0x3f>
/home/rodne/dev/cProjects/cpputest/cpputest_build/../src/CppUTest/SimpleString.cpp:238
        deallocStringBuffer(buffer_, bufferSize_, __FILE__, __LINE__);
    ab4d:	48 8b 74 24 08       	mov    0x8(%rsp),%rsi
    ab52:	b9 ee 00 00 00       	mov    $0xee,%ecx
    ab57:	48 8d 15 52 ad 01 00 	lea    0x1ad52(%rip),%rdx        # 258b0 <_ZTS25MemoryLeakWarningReporter+0x20>
    ab5e:	e8 4d 73 00 00       	callq  11eb0 <_ZN12SimpleString19deallocStringBufferEPcmPKcm>
/home/rodne/dev/cProjects/cpputest/cpputest_build/../src/CppUTest/SimpleString.cpp:240
        bufferSize_ = 0;
    ab63:	48 89 ef             	mov    %rbp,%rdi
    ab66:	e8 55 f9 ff ff       	callq  a4c0 <_Unwind_Resume@plt>

000000000000ab6b <_Z26BracketsFormattedHexString12SimpleString.cold>:
/home/rodne/dev/cProjects/cpputest/cpputest_build/../src/CppUTest/SimpleString.cpp:237 (discriminator 5)
    if (buffer_) {
    ab6b:	48 8b 7c 24 10       	mov    0x10(%rsp),%rdi
    ab70:	48 85 ff             	test   %rdi,%rdi
    ab73:	74 16                	je     ab8b <_Z26BracketsFormattedHexString12SimpleString.cold+0x20>
/home/rodne/dev/cProjects/cpputest/cpputest_build/../src/CppUTest/SimpleString.cpp:238
        deallocStringBuffer(buffer_, bufferSize_, __FILE__, __LINE__);
    ab75:	48 8b 74 24 18       	mov    0x18(%rsp),%rsi
    ab7a:	b9 ee 00 00 00       	mov    $0xee,%ecx
    ab7f:	48 8d 15 2a ad 01 00 	lea    0x1ad2a(%rip),%rdx        # 258b0 <_ZTS25MemoryLeakWarningReporter+0x20>
    ab86:	e8 25 73 00 00       	callq  11eb0 <_ZN12SimpleString19deallocStringBufferEPcmPKcm>
/home/rodne/dev/cProjects/cpputest/cpputest_build/../src/CppUTest/SimpleString.cpp:237 (discriminator 3)
    if (buffer_) {
    ab8b:	48 8b 3c 24          	mov    (%rsp),%rdi
    ab8f:	48 85 ff             	test   %rdi,%rdi
    ab92:	74 16                	je     abaa <_Z26BracketsFormattedHexString12SimpleString.cold+0x3f>
/home/rodne/dev/cProjects/cpputest/cpputest_build/../src/CppUTest/SimpleString.cpp:238
        deallocStringBuffer(buffer_, bufferSize_, __FILE__, __LINE__);
    ab94:	48 8b 74 24 08       	mov    0x8(%rsp),%rsi
    ab99:	b9 ee 00 00 00       	mov    $0xee,%ecx
    ab9e:	48 8d 15 0b ad 01 00 	lea    0x1ad0b(%rip),%rdx        # 258b0 <_ZTS25MemoryLeakWarningReporter+0x20>
    aba5:	e8 06 73 00 00       	callq  11eb0 <_ZN12SimpleString19deallocStringBufferEPcmPKcm>
/home/rodne/dev/cProjects/cpputest/cpputest_build/../src/CppUTest/SimpleString.cpp:237 (discriminator 1)
    if (buffer_) {
    abaa:	48 8b 7c 24 20       	mov    0x20(%rsp),%rdi
    abaf:	48 85 ff             	test   %rdi,%rdi
    abb2:	74 16                	je     abca <_Z26BracketsFormattedHexString12SimpleString.cold+0x5f>
/home/rodne/dev/cProjects/cpputest/cpputest_build/../src/CppUTest/SimpleString.cpp:238
        deallocStringBuffer(buffer_, bufferSize_, __FILE__, __LINE__);
    abb4:	48 8b 74 24 28       	mov    0x28(%rsp),%rsi
    abb9:	b9 ee 00 00 00       	mov    $0xee,%ecx
    abbe:	48 8d 15 eb ac 01 00 	lea    0x1aceb(%rip),%rdx        # 258b0 <_ZTS25MemoryLeakWarningReporter+0x20>
    abc5:	e8 e6 72 00 00       	callq  11eb0 <_ZN12SimpleString19deallocStringBufferEPcmPKcm>
/home/rodne/dev/cProjects/cpputest/cpputest_build/../src/CppUTest/SimpleString.cpp:240
        bufferSize_ = 0;
    abca:	48 89 ef             	mov    %rbp,%rdi
    abcd:	e8 ee f8 ff ff       	callq  a4c0 <_Unwind_Resume@plt>

000000000000abd2 <_Z17VStringFromFormatPKcP13__va_list_tag.cold>:
/home/rodne/dev/cProjects/cpputest/cpputest_build/../src/CppUTest/SimpleString.cpp:237 (discriminator 2)
    if (buffer_) {
    abd2:	48 8b 3c 24          	mov    (%rsp),%rdi
    abd6:	48 85 ff             	test   %rdi,%rdi
    abd9:	74 16                	je     abf1 <_Z17VStringFromFormatPKcP13__va_list_tag.cold+0x1f>
/home/rodne/dev/cProjects/cpputest/cpputest_build/../src/CppUTest/SimpleString.cpp:238
        deallocStringBuffer(buffer_, bufferSize_, __FILE__, __LINE__);
    abdb:	48 8b 74 24 08       	mov    0x8(%rsp),%rsi
    abe0:	b9 ee 00 00 00       	mov    $0xee,%ecx
    abe5:	48 8d 15 c4 ac 01 00 	lea    0x1acc4(%rip),%rdx        # 258b0 <_ZTS25MemoryLeakWarningReporter+0x20>
    abec:	e8 bf 72 00 00       	callq  11eb0 <_ZN12SimpleString19deallocStringBufferEPcmPKcm>
/home/rodne/dev/cProjects/cpputest/cpputest_build/../src/CppUTest/SimpleString.cpp:237
    if (buffer_) {
    abf1:	49 8b 3c 24          	mov    (%r12),%rdi
    abf5:	48 85 ff             	test   %rdi,%rdi
    abf8:	74 16                	je     ac10 <_Z17VStringFromFormatPKcP13__va_list_tag.cold+0x3e>
/home/rodne/dev/cProjects/cpputest/cpputest_build/../src/CppUTest/SimpleString.cpp:238
        deallocStringBuffer(buffer_, bufferSize_, __FILE__, __LINE__);
    abfa:	49 8b 74 24 08       	mov    0x8(%r12),%rsi
    abff:	b9 ee 00 00 00       	mov    $0xee,%ecx
    ac04:	48 8d 15 a5 ac 01 00 	lea    0x1aca5(%rip),%rdx        # 258b0 <_ZTS25MemoryLeakWarningReporter+0x20>
    ac0b:	e8 a0 72 00 00       	callq  11eb0 <_ZN12SimpleString19deallocStringBufferEPcmPKcm>
/home/rodne/dev/cProjects/cpputest/cpputest_build/../src/CppUTest/SimpleString.cpp:240
        bufferSize_ = 0;
    ac10:	48 89 ef             	mov    %rbp,%rdi
    ac13:	e8 a8 f8 ff ff       	callq  a4c0 <_Unwind_Resume@plt>
/home/rodne/dev/cProjects/cpputest/cpputest_build/../src/CppUTest/SimpleString.cpp:237 (discriminator 2)
    if (buffer_) {
    ac18:	48 8b 3c 24          	mov    (%rsp),%rdi
    ac1c:	48 85 ff             	test   %rdi,%rdi
    ac1f:	74 d0                	je     abf1 <_Z17VStringFromFormatPKcP13__va_list_tag.cold+0x1f>
/home/rodne/dev/cProjects/cpputest/cpputest_build/../src/CppUTest/SimpleString.cpp:238
        deallocStringBuffer(buffer_, bufferSize_, __FILE__, __LINE__);
    ac21:	48 8b 74 24 08       	mov    0x8(%rsp),%rsi
    ac26:	b9 ee 00 00 00       	mov    $0xee,%ecx
    ac2b:	48 8d 15 7e ac 01 00 	lea    0x1ac7e(%rip),%rdx        # 258b0 <_ZTS25MemoryLeakWarningReporter+0x20>
    ac32:	e8 79 72 00 00       	callq  11eb0 <_ZN12SimpleString19deallocStringBufferEPcmPKcm>
/home/rodne/dev/cProjects/cpputest/cpputest_build/../src/CppUTest/SimpleString.cpp:240
        bufferSize_ = 0;
    ac37:	eb b8                	jmp    abf1 <_Z17VStringFromFormatPKcP13__va_list_tag.cold+0x1f>

000000000000ac39 <_Z16StringFromFormatPKcz.cold>:
/home/rodne/dev/cProjects/cpputest/cpputest_build/../src/CppUTest/SimpleString.cpp:237 (discriminator 2)
    if (buffer_) {
    ac39:	48 8b 3c 24          	mov    (%rsp),%rdi
    ac3d:	48 85 ff             	test   %rdi,%rdi
    ac40:	74 16                	je     ac58 <_Z16StringFromFormatPKcz.cold+0x1f>
/home/rodne/dev/cProjects/cpputest/cpputest_build/../src/CppUTest/SimpleString.cpp:238
        deallocStringBuffer(buffer_, bufferSize_, __FILE__, __LINE__);
    ac42:	48 8b 74 24 08       	mov    0x8(%rsp),%rsi
    ac47:	b9 ee 00 00 00       	mov    $0xee,%ecx
    ac4c:	48 8d 15 5d ac 01 00 	lea    0x1ac5d(%rip),%rdx        # 258b0 <_ZTS25MemoryLeakWarningReporter+0x20>
    ac53:	e8 58 72 00 00       	callq  11eb0 <_ZN12SimpleString19deallocStringBufferEPcmPKcm>
/home/rodne/dev/cProjects/cpputest/cpputest_build/../src/CppUTest/SimpleString.cpp:237
    if (buffer_) {
    ac58:	49 8b 3c 24          	mov    (%r12),%rdi
    ac5c:	48 85 ff             	test   %rdi,%rdi
    ac5f:	74 16                	je     ac77 <_Z16StringFromFormatPKcz.cold+0x3e>
/home/rodne/dev/cProjects/cpputest/cpputest_build/../src/CppUTest/SimpleString.cpp:238
        deallocStringBuffer(buffer_, bufferSize_, __FILE__, __LINE__);
    ac61:	49 8b 74 24 08       	mov    0x8(%r12),%rsi
    ac66:	b9 ee 00 00 00       	mov    $0xee,%ecx
    ac6b:	48 8d 15 3e ac 01 00 	lea    0x1ac3e(%rip),%rdx        # 258b0 <_ZTS25MemoryLeakWarningReporter+0x20>
    ac72:	e8 39 72 00 00       	callq  11eb0 <_ZN12SimpleString19deallocStringBufferEPcmPKcm>
/home/rodne/dev/cProjects/cpputest/cpputest_build/../src/CppUTest/SimpleString.cpp:240
        bufferSize_ = 0;
    ac77:	48 89 ef             	mov    %rbp,%rdi
    ac7a:	e8 41 f8 ff ff       	callq  a4c0 <_Unwind_Resume@plt>
_Z16StringFromFormatPKcz.cold():
/home/rodne/dev/cProjects/cpputest/cpputest_build/../src/CppUTest/SimpleString.cpp:240
    ac7f:	90                   	nop

000000000000ac80 <_ZNK12SimpleString9printableEv.cold>:
_ZN12SimpleString24deallocateInternalBufferEv():
/home/rodne/dev/cProjects/cpputest/cpputest_build/../src/CppUTest/SimpleString.cpp:237
    if (buffer_) {
    ac80:	49 8b 3c 24          	mov    (%r12),%rdi
    ac84:	48 85 ff             	test   %rdi,%rdi
    ac87:	74 16                	je     ac9f <_ZNK12SimpleString9printableEv.cold+0x1f>
/home/rodne/dev/cProjects/cpputest/cpputest_build/../src/CppUTest/SimpleString.cpp:238
        deallocStringBuffer(buffer_, bufferSize_, __FILE__, __LINE__);
    ac89:	49 8b 74 24 08       	mov    0x8(%r12),%rsi
    ac8e:	b9 ee 00 00 00       	mov    $0xee,%ecx
    ac93:	48 8d 15 16 ac 01 00 	lea    0x1ac16(%rip),%rdx        # 258b0 <_ZTS25MemoryLeakWarningReporter+0x20>
    ac9a:	e8 11 72 00 00       	callq  11eb0 <_ZN12SimpleString19deallocStringBufferEPcmPKcm>
/home/rodne/dev/cProjects/cpputest/cpputest_build/../src/CppUTest/SimpleString.cpp:240
        bufferSize_ = 0;
    ac9f:	48 89 ef             	mov    %rbp,%rdi
    aca2:	e8 19 f8 ff ff       	callq  a4c0 <_Unwind_Resume@plt>

000000000000aca7 <_Z25PrintableStringFromOrNullPKc.cold>:
/home/rodne/dev/cProjects/cpputest/cpputest_build/../src/CppUTest/SimpleString.cpp:237
    if (buffer_) {
    aca7:	48 8b 3c 24          	mov    (%rsp),%rdi
    acab:	48 85 ff             	test   %rdi,%rdi
    acae:	74 16                	je     acc6 <_Z25PrintableStringFromOrNullPKc.cold+0x1f>
/home/rodne/dev/cProjects/cpputest/cpputest_build/../src/CppUTest/SimpleString.cpp:238
        deallocStringBuffer(buffer_, bufferSize_, __FILE__, __LINE__);
    acb0:	48 8b 74 24 08       	mov    0x8(%rsp),%rsi
    acb5:	b9 ee 00 00 00       	mov    $0xee,%ecx
    acba:	48 8d 15 ef ab 01 00 	lea    0x1abef(%rip),%rdx        # 258b0 <_ZTS25MemoryLeakWarningReporter+0x20>
    acc1:	e8 ea 71 00 00       	callq  11eb0 <_ZN12SimpleString19deallocStringBufferEPcmPKcm>
/home/rodne/dev/cProjects/cpputest/cpputest_build/../src/CppUTest/SimpleString.cpp:240
        bufferSize_ = 0;
    acc6:	48 89 ef             	mov    %rbp,%rdi
    acc9:	e8 f2 f7 ff ff       	callq  a4c0 <_Unwind_Resume@plt>

000000000000acce <_Z30BracketsFormattedHexStringFroml.cold>:
/home/rodne/dev/cProjects/cpputest/cpputest_build/../src/CppUTest/SimpleString.cpp:237 (discriminator 1)
    if (buffer_) {
    acce:	48 8b 3c 24          	mov    (%rsp),%rdi
    acd2:	48 85 ff             	test   %rdi,%rdi
    acd5:	74 16                	je     aced <_Z30BracketsFormattedHexStringFroml.cold+0x1f>
/home/rodne/dev/cProjects/cpputest/cpputest_build/../src/CppUTest/SimpleString.cpp:238
        deallocStringBuffer(buffer_, bufferSize_, __FILE__, __LINE__);
    acd7:	48 8b 74 24 08       	mov    0x8(%rsp),%rsi
    acdc:	b9 ee 00 00 00       	mov    $0xee,%ecx
    ace1:	48 8d 15 c8 ab 01 00 	lea    0x1abc8(%rip),%rdx        # 258b0 <_ZTS25MemoryLeakWarningReporter+0x20>
    ace8:	e8 c3 71 00 00       	callq  11eb0 <_ZN12SimpleString19deallocStringBufferEPcmPKcm>
/home/rodne/dev/cProjects/cpputest/cpputest_build/../src/CppUTest/SimpleString.cpp:240
        bufferSize_ = 0;
    aced:	48 89 ef             	mov    %rbp,%rdi
    acf0:	e8 cb f7 ff ff       	callq  a4c0 <_Unwind_Resume@plt>

000000000000acf5 <_Z30BracketsFormattedHexStringFromi.cold>:
/home/rodne/dev/cProjects/cpputest/cpputest_build/../src/CppUTest/SimpleString.cpp:237 (discriminator 1)
    if (buffer_) {
    acf5:	48 8b 3c 24          	mov    (%rsp),%rdi
    acf9:	48 85 ff             	test   %rdi,%rdi
    acfc:	74 16                	je     ad14 <_Z30BracketsFormattedHexStringFromi.cold+0x1f>
/home/rodne/dev/cProjects/cpputest/cpputest_build/../src/CppUTest/SimpleString.cpp:238
        deallocStringBuffer(buffer_, bufferSize_, __FILE__, __LINE__);
    acfe:	48 8b 74 24 08       	mov    0x8(%rsp),%rsi
    ad03:	b9 ee 00 00 00       	mov    $0xee,%ecx
    ad08:	48 8d 15 a1 ab 01 00 	lea    0x1aba1(%rip),%rdx        # 258b0 <_ZTS25MemoryLeakWarningReporter+0x20>
    ad0f:	e8 9c 71 00 00       	callq  11eb0 <_ZN12SimpleString19deallocStringBufferEPcmPKcm>
/home/rodne/dev/cProjects/cpputest/cpputest_build/../src/CppUTest/SimpleString.cpp:240
        bufferSize_ = 0;
    ad14:	48 89 ef             	mov    %rbp,%rdi
    ad17:	e8 a4 f7 ff ff       	callq  a4c0 <_Unwind_Resume@plt>

000000000000ad1c <_Z13HexStringFroma.cold>:
/home/rodne/dev/cProjects/cpputest/cpputest_build/../src/CppUTest/SimpleString.cpp:237 (discriminator 2)
    if (buffer_) {
    ad1c:	48 8b 3c 24          	mov    (%rsp),%rdi
    ad20:	48 85 ff             	test   %rdi,%rdi
    ad23:	74 16                	je     ad3b <_Z13HexStringFroma.cold+0x1f>
/home/rodne/dev/cProjects/cpputest/cpputest_build/../src/CppUTest/SimpleString.cpp:238
        deallocStringBuffer(buffer_, bufferSize_, __FILE__, __LINE__);
    ad25:	48 8b 74 24 08       	mov    0x8(%rsp),%rsi
    ad2a:	b9 ee 00 00 00       	mov    $0xee,%ecx
    ad2f:	48 8d 15 7a ab 01 00 	lea    0x1ab7a(%rip),%rdx        # 258b0 <_ZTS25MemoryLeakWarningReporter+0x20>
    ad36:	e8 75 71 00 00       	callq  11eb0 <_ZN12SimpleString19deallocStringBufferEPcmPKcm>
/home/rodne/dev/cProjects/cpputest/cpputest_build/../src/CppUTest/SimpleString.cpp:237
    if (buffer_) {
    ad3b:	49 8b 3c 24          	mov    (%r12),%rdi
    ad3f:	48 85 ff             	test   %rdi,%rdi
    ad42:	74 16                	je     ad5a <_Z13HexStringFroma.cold+0x3e>
/home/rodne/dev/cProjects/cpputest/cpputest_build/../src/CppUTest/SimpleString.cpp:238
        deallocStringBuffer(buffer_, bufferSize_, __FILE__, __LINE__);
    ad44:	49 8b 74 24 08       	mov    0x8(%r12),%rsi
    ad49:	b9 ee 00 00 00       	mov    $0xee,%ecx
    ad4e:	48 8d 15 5b ab 01 00 	lea    0x1ab5b(%rip),%rdx        # 258b0 <_ZTS25MemoryLeakWarningReporter+0x20>
    ad55:	e8 56 71 00 00       	callq  11eb0 <_ZN12SimpleString19deallocStringBufferEPcmPKcm>
/home/rodne/dev/cProjects/cpputest/cpputest_build/../src/CppUTest/SimpleString.cpp:240
        bufferSize_ = 0;
    ad5a:	48 89 ef             	mov    %rbp,%rdi
    ad5d:	e8 5e f7 ff ff       	callq  a4c0 <_Unwind_Resume@plt>

000000000000ad62 <_Z30BracketsFormattedHexStringFroma.cold>:
/home/rodne/dev/cProjects/cpputest/cpputest_build/../src/CppUTest/SimpleString.cpp:237 (discriminator 1)
    if (buffer_) {
    ad62:	48 8b 3c 24          	mov    (%rsp),%rdi
    ad66:	48 85 ff             	test   %rdi,%rdi
    ad69:	74 16                	je     ad81 <_Z30BracketsFormattedHexStringFroma.cold+0x1f>
/home/rodne/dev/cProjects/cpputest/cpputest_build/../src/CppUTest/SimpleString.cpp:238
        deallocStringBuffer(buffer_, bufferSize_, __FILE__, __LINE__);
    ad6b:	48 8b 74 24 08       	mov    0x8(%rsp),%rsi
    ad70:	b9 ee 00 00 00       	mov    $0xee,%ecx
    ad75:	48 8d 15 34 ab 01 00 	lea    0x1ab34(%rip),%rdx        # 258b0 <_ZTS25MemoryLeakWarningReporter+0x20>
    ad7c:	e8 2f 71 00 00       	callq  11eb0 <_ZN12SimpleString19deallocStringBufferEPcmPKcm>
/home/rodne/dev/cProjects/cpputest/cpputest_build/../src/CppUTest/SimpleString.cpp:240
        bufferSize_ = 0;
    ad81:	48 89 ef             	mov    %rbp,%rdi
    ad84:	e8 37 f7 ff ff       	callq  a4c0 <_Unwind_Resume@plt>

000000000000ad89 <_Z30BracketsFormattedHexStringFromm.cold>:
/home/rodne/dev/cProjects/cpputest/cpputest_build/../src/CppUTest/SimpleString.cpp:237 (discriminator 1)
    if (buffer_) {
    ad89:	48 8b 3c 24          	mov    (%rsp),%rdi
    ad8d:	48 85 ff             	test   %rdi,%rdi
    ad90:	74 16                	je     ada8 <_Z30BracketsFormattedHexStringFromm.cold+0x1f>
/home/rodne/dev/cProjects/cpputest/cpputest_build/../src/CppUTest/SimpleString.cpp:238
        deallocStringBuffer(buffer_, bufferSize_, __FILE__, __LINE__);
    ad92:	48 8b 74 24 08       	mov    0x8(%rsp),%rsi
    ad97:	b9 ee 00 00 00       	mov    $0xee,%ecx
    ad9c:	48 8d 15 0d ab 01 00 	lea    0x1ab0d(%rip),%rdx        # 258b0 <_ZTS25MemoryLeakWarningReporter+0x20>
    ada3:	e8 08 71 00 00       	callq  11eb0 <_ZN12SimpleString19deallocStringBufferEPcmPKcm>
/home/rodne/dev/cProjects/cpputest/cpputest_build/../src/CppUTest/SimpleString.cpp:240
        bufferSize_ = 0;
    ada8:	48 89 ef             	mov    %rbp,%rdi
    adab:	e8 10 f7 ff ff       	callq  a4c0 <_Unwind_Resume@plt>

000000000000adb0 <_Z30BracketsFormattedHexStringFromj.cold>:
/home/rodne/dev/cProjects/cpputest/cpputest_build/../src/CppUTest/SimpleString.cpp:237 (discriminator 1)
    if (buffer_) {
    adb0:	48 8b 3c 24          	mov    (%rsp),%rdi
    adb4:	48 85 ff             	test   %rdi,%rdi
    adb7:	74 16                	je     adcf <_Z30BracketsFormattedHexStringFromj.cold+0x1f>
/home/rodne/dev/cProjects/cpputest/cpputest_build/../src/CppUTest/SimpleString.cpp:238
        deallocStringBuffer(buffer_, bufferSize_, __FILE__, __LINE__);
    adb9:	48 8b 74 24 08       	mov    0x8(%rsp),%rsi
    adbe:	b9 ee 00 00 00       	mov    $0xee,%ecx
    adc3:	48 8d 15 e6 aa 01 00 	lea    0x1aae6(%rip),%rdx        # 258b0 <_ZTS25MemoryLeakWarningReporter+0x20>
    adca:	e8 e1 70 00 00       	callq  11eb0 <_ZN12SimpleString19deallocStringBufferEPcmPKcm>
/home/rodne/dev/cProjects/cpputest/cpputest_build/../src/CppUTest/SimpleString.cpp:240
        bufferSize_ = 0;
    adcf:	48 89 ef             	mov    %rbp,%rdi
    add2:	e8 e9 f6 ff ff       	callq  a4c0 <_Unwind_Resume@plt>

000000000000add7 <_Z30BracketsFormattedHexStringFromx.cold>:
/home/rodne/dev/cProjects/cpputest/cpputest_build/../src/CppUTest/SimpleString.cpp:237 (discriminator 1)
    if (buffer_) {
    add7:	48 8b 3c 24          	mov    (%rsp),%rdi
    addb:	48 85 ff             	test   %rdi,%rdi
    adde:	74 16                	je     adf6 <_Z30BracketsFormattedHexStringFromx.cold+0x1f>
/home/rodne/dev/cProjects/cpputest/cpputest_build/../src/CppUTest/SimpleString.cpp:238
        deallocStringBuffer(buffer_, bufferSize_, __FILE__, __LINE__);
    ade0:	48 8b 74 24 08       	mov    0x8(%rsp),%rsi
    ade5:	b9 ee 00 00 00       	mov    $0xee,%ecx
    adea:	48 8d 15 bf aa 01 00 	lea    0x1aabf(%rip),%rdx        # 258b0 <_ZTS25MemoryLeakWarningReporter+0x20>
    adf1:	e8 ba 70 00 00       	callq  11eb0 <_ZN12SimpleString19deallocStringBufferEPcmPKcm>
/home/rodne/dev/cProjects/cpputest/cpputest_build/../src/CppUTest/SimpleString.cpp:240
        bufferSize_ = 0;
    adf6:	48 89 ef             	mov    %rbp,%rdi
    adf9:	e8 c2 f6 ff ff       	callq  a4c0 <_Unwind_Resume@plt>

000000000000adfe <_Z10StringFromPKv.cold>:
/home/rodne/dev/cProjects/cpputest/cpputest_build/../src/CppUTest/SimpleString.cpp:237 (discriminator 3)
    if (buffer_) {
    adfe:	48 8b 3c 24          	mov    (%rsp),%rdi
    ae02:	48 85 ff             	test   %rdi,%rdi
    ae05:	74 16                	je     ae1d <_Z10StringFromPKv.cold+0x1f>
/home/rodne/dev/cProjects/cpputest/cpputest_build/../src/CppUTest/SimpleString.cpp:238
        deallocStringBuffer(buffer_, bufferSize_, __FILE__, __LINE__);
    ae07:	48 8b 74 24 08       	mov    0x8(%rsp),%rsi
    ae0c:	b9 ee 00 00 00       	mov    $0xee,%ecx
    ae11:	48 8d 15 98 aa 01 00 	lea    0x1aa98(%rip),%rdx        # 258b0 <_ZTS25MemoryLeakWarningReporter+0x20>
    ae18:	e8 93 70 00 00       	callq  11eb0 <_ZN12SimpleString19deallocStringBufferEPcmPKcm>
/home/rodne/dev/cProjects/cpputest/cpputest_build/../src/CppUTest/SimpleString.cpp:237 (discriminator 1)
    if (buffer_) {
    ae1d:	48 8b 7c 24 10       	mov    0x10(%rsp),%rdi
    ae22:	48 85 ff             	test   %rdi,%rdi
    ae25:	74 16                	je     ae3d <_Z10StringFromPKv.cold+0x3f>
/home/rodne/dev/cProjects/cpputest/cpputest_build/../src/CppUTest/SimpleString.cpp:238
        deallocStringBuffer(buffer_, bufferSize_, __FILE__, __LINE__);
    ae27:	48 8b 74 24 18       	mov    0x18(%rsp),%rsi
    ae2c:	b9 ee 00 00 00       	mov    $0xee,%ecx
    ae31:	48 8d 15 78 aa 01 00 	lea    0x1aa78(%rip),%rdx        # 258b0 <_ZTS25MemoryLeakWarningReporter+0x20>
    ae38:	e8 73 70 00 00       	callq  11eb0 <_ZN12SimpleString19deallocStringBufferEPcmPKcm>
/home/rodne/dev/cProjects/cpputest/cpputest_build/../src/CppUTest/SimpleString.cpp:240
        bufferSize_ = 0;
    ae3d:	48 89 ef             	mov    %rbp,%rdi
    ae40:	e8 7b f6 ff ff       	callq  a4c0 <_Unwind_Resume@plt>

000000000000ae45 <_Z10StringFromPFvvE.cold>:
/home/rodne/dev/cProjects/cpputest/cpputest_build/../src/CppUTest/SimpleString.cpp:237 (discriminator 3)
    if (buffer_) {
    ae45:	48 8b 3c 24          	mov    (%rsp),%rdi
    ae49:	48 85 ff             	test   %rdi,%rdi
    ae4c:	74 16                	je     ae64 <_Z10StringFromPFvvE.cold+0x1f>
/home/rodne/dev/cProjects/cpputest/cpputest_build/../src/CppUTest/SimpleString.cpp:238
        deallocStringBuffer(buffer_, bufferSize_, __FILE__, __LINE__);
    ae4e:	48 8b 74 24 08       	mov    0x8(%rsp),%rsi
    ae53:	b9 ee 00 00 00       	mov    $0xee,%ecx
    ae58:	48 8d 15 51 aa 01 00 	lea    0x1aa51(%rip),%rdx        # 258b0 <_ZTS25MemoryLeakWarningReporter+0x20>
    ae5f:	e8 4c 70 00 00       	callq  11eb0 <_ZN12SimpleString19deallocStringBufferEPcmPKcm>
/home/rodne/dev/cProjects/cpputest/cpputest_build/../src/CppUTest/SimpleString.cpp:237 (discriminator 1)
    if (buffer_) {
    ae64:	48 8b 7c 24 10       	mov    0x10(%rsp),%rdi
    ae69:	48 85 ff             	test   %rdi,%rdi
    ae6c:	74 16                	je     ae84 <_Z10StringFromPFvvE.cold+0x3f>
/home/rodne/dev/cProjects/cpputest/cpputest_build/../src/CppUTest/SimpleString.cpp:238
        deallocStringBuffer(buffer_, bufferSize_, __FILE__, __LINE__);
    ae6e:	48 8b 74 24 18       	mov    0x18(%rsp),%rsi
    ae73:	b9 ee 00 00 00       	mov    $0xee,%ecx
    ae78:	48 8d 15 31 aa 01 00 	lea    0x1aa31(%rip),%rdx        # 258b0 <_ZTS25MemoryLeakWarningReporter+0x20>
    ae7f:	e8 2c 70 00 00       	callq  11eb0 <_ZN12SimpleString19deallocStringBufferEPcmPKcm>
/home/rodne/dev/cProjects/cpputest/cpputest_build/../src/CppUTest/SimpleString.cpp:240
        bufferSize_ = 0;
    ae84:	48 89 ef             	mov    %rbp,%rdi
    ae87:	e8 34 f6 ff ff       	callq  a4c0 <_Unwind_Resume@plt>

000000000000ae8c <_Z30BracketsFormattedHexStringFromy.cold>:
/home/rodne/dev/cProjects/cpputest/cpputest_build/../src/CppUTest/SimpleString.cpp:237 (discriminator 1)
    if (buffer_) {
    ae8c:	48 8b 3c 24          	mov    (%rsp),%rdi
    ae90:	48 85 ff             	test   %rdi,%rdi
    ae93:	74 16                	je     aeab <_Z30BracketsFormattedHexStringFromy.cold+0x1f>
/home/rodne/dev/cProjects/cpputest/cpputest_build/../src/CppUTest/SimpleString.cpp:238
        deallocStringBuffer(buffer_, bufferSize_, __FILE__, __LINE__);
    ae95:	48 8b 74 24 08       	mov    0x8(%rsp),%rsi
    ae9a:	b9 ee 00 00 00       	mov    $0xee,%ecx
    ae9f:	48 8d 15 0a aa 01 00 	lea    0x1aa0a(%rip),%rdx        # 258b0 <_ZTS25MemoryLeakWarningReporter+0x20>
    aea6:	e8 05 70 00 00       	callq  11eb0 <_ZN12SimpleString19deallocStringBufferEPcmPKcm>
/home/rodne/dev/cProjects/cpputest/cpputest_build/../src/CppUTest/SimpleString.cpp:240
        bufferSize_ = 0;
    aeab:	48 89 ef             	mov    %rbp,%rdi
    aeae:	e8 0d f6 ff ff       	callq  a4c0 <_Unwind_Resume@plt>

000000000000aeb3 <_Z16StringFromBinaryPKhm.cold>:
/home/rodne/dev/cProjects/cpputest/cpputest_build/../src/CppUTest/SimpleString.cpp:237 (discriminator 2)
    if (buffer_) {
    aeb3:	48 8b 3c 24          	mov    (%rsp),%rdi
    aeb7:	48 85 ff             	test   %rdi,%rdi
    aeba:	74 16                	je     aed2 <_Z16StringFromBinaryPKhm.cold+0x1f>
/home/rodne/dev/cProjects/cpputest/cpputest_build/../src/CppUTest/SimpleString.cpp:238
        deallocStringBuffer(buffer_, bufferSize_, __FILE__, __LINE__);
    aebc:	48 8b 74 24 08       	mov    0x8(%rsp),%rsi
    aec1:	b9 ee 00 00 00       	mov    $0xee,%ecx
    aec6:	48 8d 15 e3 a9 01 00 	lea    0x1a9e3(%rip),%rdx        # 258b0 <_ZTS25MemoryLeakWarningReporter+0x20>
    aecd:	e8 de 6f 00 00       	callq  11eb0 <_ZN12SimpleString19deallocStringBufferEPcmPKcm>
/home/rodne/dev/cProjects/cpputest/cpputest_build/../src/CppUTest/SimpleString.cpp:237
    if (buffer_) {
    aed2:	49 8b 3c 24          	mov    (%r12),%rdi
    aed6:	48 85 ff             	test   %rdi,%rdi
    aed9:	74 16                	je     aef1 <_Z16StringFromBinaryPKhm.cold+0x3e>
/home/rodne/dev/cProjects/cpputest/cpputest_build/../src/CppUTest/SimpleString.cpp:238
        deallocStringBuffer(buffer_, bufferSize_, __FILE__, __LINE__);
    aedb:	49 8b 74 24 08       	mov    0x8(%r12),%rsi
    aee0:	b9 ee 00 00 00       	mov    $0xee,%ecx
    aee5:	48 8d 15 c4 a9 01 00 	lea    0x1a9c4(%rip),%rdx        # 258b0 <_ZTS25MemoryLeakWarningReporter+0x20>
    aeec:	e8 bf 6f 00 00       	callq  11eb0 <_ZN12SimpleString19deallocStringBufferEPcmPKcm>
/home/rodne/dev/cProjects/cpputest/cpputest_build/../src/CppUTest/SimpleString.cpp:240
        bufferSize_ = 0;
    aef1:	48 89 ef             	mov    %rbp,%rdi
    aef4:	e8 c7 f5 ff ff       	callq  a4c0 <_Unwind_Resume@plt>
/home/rodne/dev/cProjects/cpputest/cpputest_build/../src/CppUTest/SimpleString.cpp:237 (discriminator 2)
    if (buffer_) {
    aef9:	48 8b 3c 24          	mov    (%rsp),%rdi
    aefd:	48 85 ff             	test   %rdi,%rdi
    af00:	74 d0                	je     aed2 <_Z16StringFromBinaryPKhm.cold+0x1f>
/home/rodne/dev/cProjects/cpputest/cpputest_build/../src/CppUTest/SimpleString.cpp:238
        deallocStringBuffer(buffer_, bufferSize_, __FILE__, __LINE__);
    af02:	48 8b 74 24 08       	mov    0x8(%rsp),%rsi
    af07:	b9 ee 00 00 00       	mov    $0xee,%ecx
    af0c:	48 8d 15 9d a9 01 00 	lea    0x1a99d(%rip),%rdx        # 258b0 <_ZTS25MemoryLeakWarningReporter+0x20>
    af13:	e8 98 6f 00 00       	callq  11eb0 <_ZN12SimpleString19deallocStringBufferEPcmPKcm>
/home/rodne/dev/cProjects/cpputest/cpputest_build/../src/CppUTest/SimpleString.cpp:240
        bufferSize_ = 0;
    af18:	eb b8                	jmp    aed2 <_Z16StringFromBinaryPKhm.cold+0x1f>

000000000000af1a <_Z24StringFromBinaryWithSizePKhm.cold>:
/home/rodne/dev/cProjects/cpputest/cpputest_build/../src/CppUTest/SimpleString.cpp:237 (discriminator 2)
    if (buffer_) {
    af1a:	48 8b 3c 24          	mov    (%rsp),%rdi
    af1e:	48 85 ff             	test   %rdi,%rdi
    af21:	74 16                	je     af39 <_Z24StringFromBinaryWithSizePKhm.cold+0x1f>
/home/rodne/dev/cProjects/cpputest/cpputest_build/../src/CppUTest/SimpleString.cpp:238
        deallocStringBuffer(buffer_, bufferSize_, __FILE__, __LINE__);
    af23:	48 8b 74 24 08       	mov    0x8(%rsp),%rsi
    af28:	b9 ee 00 00 00       	mov    $0xee,%ecx
    af2d:	48 8d 15 7c a9 01 00 	lea    0x1a97c(%rip),%rdx        # 258b0 <_ZTS25MemoryLeakWarningReporter+0x20>
    af34:	e8 77 6f 00 00       	callq  11eb0 <_ZN12SimpleString19deallocStringBufferEPcmPKcm>
/home/rodne/dev/cProjects/cpputest/cpputest_build/../src/CppUTest/SimpleString.cpp:237
    if (buffer_) {
    af39:	49 8b 3c 24          	mov    (%r12),%rdi
    af3d:	48 85 ff             	test   %rdi,%rdi
    af40:	74 16                	je     af58 <_Z24StringFromBinaryWithSizePKhm.cold+0x3e>
/home/rodne/dev/cProjects/cpputest/cpputest_build/../src/CppUTest/SimpleString.cpp:238
        deallocStringBuffer(buffer_, bufferSize_, __FILE__, __LINE__);
    af42:	49 8b 74 24 08       	mov    0x8(%r12),%rsi
    af47:	b9 ee 00 00 00       	mov    $0xee,%ecx
    af4c:	48 8d 15 5d a9 01 00 	lea    0x1a95d(%rip),%rdx        # 258b0 <_ZTS25MemoryLeakWarningReporter+0x20>
    af53:	e8 58 6f 00 00       	callq  11eb0 <_ZN12SimpleString19deallocStringBufferEPcmPKcm>
/home/rodne/dev/cProjects/cpputest/cpputest_build/../src/CppUTest/SimpleString.cpp:240
        bufferSize_ = 0;
    af58:	48 89 ef             	mov    %rbp,%rdi
    af5b:	e8 60 f5 ff ff       	callq  a4c0 <_Unwind_Resume@plt>

000000000000af60 <_Z20StringFromMaskedBitsmmm.cold>:
/home/rodne/dev/cProjects/cpputest/cpputest_build/../src/CppUTest/SimpleString.cpp:237
    if (buffer_) {
    af60:	49 8b 7d 00          	mov    0x0(%r13),%rdi
    af64:	48 85 ff             	test   %rdi,%rdi
    af67:	74 15                	je     af7e <_Z20StringFromMaskedBitsmmm.cold+0x1e>
/home/rodne/dev/cProjects/cpputest/cpputest_build/../src/CppUTest/SimpleString.cpp:238
        deallocStringBuffer(buffer_, bufferSize_, __FILE__, __LINE__);
    af69:	49 8b 75 08          	mov    0x8(%r13),%rsi
    af6d:	b9 ee 00 00 00       	mov    $0xee,%ecx
    af72:	48 8d 15 37 a9 01 00 	lea    0x1a937(%rip),%rdx        # 258b0 <_ZTS25MemoryLeakWarningReporter+0x20>
    af79:	e8 32 6f 00 00       	callq  11eb0 <_ZN12SimpleString19deallocStringBufferEPcmPKcm>
/home/rodne/dev/cProjects/cpputest/cpputest_build/../src/CppUTest/SimpleString.cpp:240
        bufferSize_ = 0;
    af7e:	48 89 ef             	mov    %rbp,%rdi
    af81:	e8 3a f5 ff ff       	callq  a4c0 <_Unwind_Resume@plt>

000000000000af86 <_ZN22SimpleStringCollection8allocateEm.cold>:
_ZN22SimpleStringCollection8allocateEm():
/home/rodne/dev/cProjects/cpputest/cpputest_build/../src/CppUTest/SimpleString.cpp:1063
void SimpleStringCollection::allocate(size_t _size)
{
    delete[] collection_;

    size_ = _size;
    collection_ = new SimpleString[size_];
    af86:	48 8b 5c 24 08       	mov    0x8(%rsp),%rbx
    af8b:	48 29 eb             	sub    %rbp,%rbx
_ZN12SimpleString24deallocateInternalBufferEv():
/home/rodne/dev/cProjects/cpputest/cpputest_build/../src/CppUTest/SimpleString.cpp:238
        deallocStringBuffer(buffer_, bufferSize_, __FILE__, __LINE__);
    af8e:	48 8d 2d 1b a9 01 00 	lea    0x1a91b(%rip),%rbp        # 258b0 <_ZTS25MemoryLeakWarningReporter+0x20>
_ZN22SimpleStringCollection8allocateEm():
/home/rodne/dev/cProjects/cpputest/cpputest_build/../src/CppUTest/SimpleString.cpp:1063
    collection_ = new SimpleString[size_];
    af95:	48 c1 e3 04          	shl    $0x4,%rbx
    af99:	4c 01 fb             	add    %r15,%rbx
    af9c:	4c 39 fb             	cmp    %r15,%rbx
    af9f:	75 1c                	jne    afbd <_ZN22SimpleStringCollection8allocateEm.cold+0x37>
/home/rodne/dev/cProjects/cpputest/cpputest_build/../src/CppUTest/SimpleString.cpp:1063 (discriminator 8)
    afa1:	4c 89 f7             	mov    %r14,%rdi
    afa4:	ba 27 04 00 00       	mov    $0x427,%edx
    afa9:	48 8d 35 00 a9 01 00 	lea    0x1a900(%rip),%rsi        # 258b0 <_ZTS25MemoryLeakWarningReporter+0x20>
    afb0:	e8 eb 55 00 00       	callq  105a0 <_ZdaPvPKci>
    afb5:	4c 89 e7             	mov    %r12,%rdi
    afb8:	e8 03 f5 ff ff       	callq  a4c0 <_Unwind_Resume@plt>
_ZN12SimpleString24deallocateInternalBufferEv():
/home/rodne/dev/cProjects/cpputest/cpputest_build/../src/CppUTest/SimpleString.cpp:237 (discriminator 7)
    if (buffer_) {
    afbd:	48 8b 7b f0          	mov    -0x10(%rbx),%rdi
_ZN22SimpleStringCollection8allocateEm():
/home/rodne/dev/cProjects/cpputest/cpputest_build/../src/CppUTest/SimpleString.cpp:237 (discriminator 7)
    afc1:	48 83 eb 10          	sub    $0x10,%rbx
_ZN12SimpleString24deallocateInternalBufferEv():
/home/rodne/dev/cProjects/cpputest/cpputest_build/../src/CppUTest/SimpleString.cpp:237 (discriminator 7)
    afc5:	48 85 ff             	test   %rdi,%rdi
    afc8:	74 d2                	je     af9c <_ZN22SimpleStringCollection8allocateEm.cold+0x16>
/home/rodne/dev/cProjects/cpputest/cpputest_build/../src/CppUTest/SimpleString.cpp:238
        deallocStringBuffer(buffer_, bufferSize_, __FILE__, __LINE__);
    afca:	48 8b 73 08          	mov    0x8(%rbx),%rsi
    afce:	b9 ee 00 00 00       	mov    $0xee,%ecx
    afd3:	48 89 ea             	mov    %rbp,%rdx
    afd6:	e8 d5 6e 00 00       	callq  11eb0 <_ZN12SimpleString19deallocStringBufferEPcmPKcm>
_ZN12SimpleStringD4Ev():
/home/rodne/dev/cProjects/cpputest/cpputest_build/../src/CppUTest/SimpleString.cpp:526
}
    afdb:	eb bf                	jmp    af9c <_ZN22SimpleStringCollection8allocateEm.cold+0x16>
_ZN22SimpleStringCollection8allocateEm.cold():
/home/rodne/dev/cProjects/cpputest/cpputest_build/../src/CppUTest/SimpleString.cpp:526
    afdd:	90                   	nop

000000000000afde <_ZN22SimpleStringCollectionixEm.cold>:
_ZN12SimpleString24deallocateInternalBufferEv():
/home/rodne/dev/cProjects/cpputest/cpputest_build/../src/CppUTest/SimpleString.cpp:237 (discriminator 1)
    if (buffer_) {
    afde:	48 8b 3c 24          	mov    (%rsp),%rdi
    afe2:	48 85 ff             	test   %rdi,%rdi
    afe5:	74 16                	je     affd <_ZN22SimpleStringCollectionixEm.cold+0x1f>
/home/rodne/dev/cProjects/cpputest/cpputest_build/../src/CppUTest/SimpleString.cpp:238
        deallocStringBuffer(buffer_, bufferSize_, __FILE__, __LINE__);
    afe7:	48 8b 74 24 08       	mov    0x8(%rsp),%rsi
    afec:	b9 ee 00 00 00       	mov    $0xee,%ecx
    aff1:	48 8d 15 b8 a8 01 00 	lea    0x1a8b8(%rip),%rdx        # 258b0 <_ZTS25MemoryLeakWarningReporter+0x20>
    aff8:	e8 b3 6e 00 00       	callq  11eb0 <_ZN12SimpleString19deallocStringBufferEPcmPKcm>
/home/rodne/dev/cProjects/cpputest/cpputest_build/../src/CppUTest/SimpleString.cpp:240
        bufferSize_ = 0;
    affd:	48 89 ef             	mov    %rbp,%rdi
    b000:	e8 bb f4 ff ff       	callq  a4c0 <_Unwind_Resume@plt>
_ZN22SimpleStringCollectionixEm.cold():
/home/rodne/dev/cProjects/cpputest/cpputest_build/../src/CppUTest/SimpleString.cpp:240
    b005:	90                   	nop

000000000000b006 <_ZNK12SimpleString5splitERKS_R22SimpleStringCollection.cold>:
_ZN12SimpleString24deallocateInternalBufferEv():
/home/rodne/dev/cProjects/cpputest/cpputest_build/../src/CppUTest/SimpleString.cpp:237 (discriminator 5)
    if (buffer_) {
    b006:	48 8b 7c 24 30       	mov    0x30(%rsp),%rdi
    b00b:	48 85 ff             	test   %rdi,%rdi
    b00e:	74 16                	je     b026 <_ZNK12SimpleString5splitERKS_R22SimpleStringCollection.cold+0x20>
/home/rodne/dev/cProjects/cpputest/cpputest_build/../src/CppUTest/SimpleString.cpp:238
        deallocStringBuffer(buffer_, bufferSize_, __FILE__, __LINE__);
    b010:	48 8b 74 24 38       	mov    0x38(%rsp),%rsi
    b015:	b9 ee 00 00 00       	mov    $0xee,%ecx
    b01a:	48 8d 15 8f a8 01 00 	lea    0x1a88f(%rip),%rdx        # 258b0 <_ZTS25MemoryLeakWarningReporter+0x20>
    b021:	e8 8a 6e 00 00       	callq  11eb0 <_ZN12SimpleString19deallocStringBufferEPcmPKcm>
/home/rodne/dev/cProjects/cpputest/cpputest_build/../src/CppUTest/SimpleString.cpp:237 (discriminator 1)
    if (buffer_) {
    b026:	48 8b 7c 24 20       	mov    0x20(%rsp),%rdi
    b02b:	48 85 ff             	test   %rdi,%rdi
    b02e:	74 16                	je     b046 <_ZNK12SimpleString5splitERKS_R22SimpleStringCollection.cold+0x40>
/home/rodne/dev/cProjects/cpputest/cpputest_build/../src/CppUTest/SimpleString.cpp:238
        deallocStringBuffer(buffer_, bufferSize_, __FILE__, __LINE__);
    b030:	48 8b 74 24 28       	mov    0x28(%rsp),%rsi
    b035:	b9 ee 00 00 00       	mov    $0xee,%ecx
    b03a:	48 8d 15 6f a8 01 00 	lea    0x1a86f(%rip),%rdx        # 258b0 <_ZTS25MemoryLeakWarningReporter+0x20>
    b041:	e8 6a 6e 00 00       	callq  11eb0 <_ZN12SimpleString19deallocStringBufferEPcmPKcm>
/home/rodne/dev/cProjects/cpputest/cpputest_build/../src/CppUTest/SimpleString.cpp:240
        bufferSize_ = 0;
    b046:	48 89 ef             	mov    %rbp,%rdi
    b049:	e8 72 f4 ff ff       	callq  a4c0 <_Unwind_Resume@plt>
/home/rodne/dev/cProjects/cpputest/cpputest_build/../src/CppUTest/SimpleString.cpp:237 (discriminator 3)
    if (buffer_) {
    b04e:	48 8b 7c 24 30       	mov    0x30(%rsp),%rdi
    b053:	48 85 ff             	test   %rdi,%rdi
    b056:	74 16                	je     b06e <_ZNK12SimpleString5splitERKS_R22SimpleStringCollection.cold+0x68>
/home/rodne/dev/cProjects/cpputest/cpputest_build/../src/CppUTest/SimpleString.cpp:238
        deallocStringBuffer(buffer_, bufferSize_, __FILE__, __LINE__);
    b058:	48 8b 74 24 38       	mov    0x38(%rsp),%rsi
    b05d:	b9 ee 00 00 00       	mov    $0xee,%ecx
    b062:	48 8d 15 47 a8 01 00 	lea    0x1a847(%rip),%rdx        # 258b0 <_ZTS25MemoryLeakWarningReporter+0x20>
    b069:	e8 42 6e 00 00       	callq  11eb0 <_ZN12SimpleString19deallocStringBufferEPcmPKcm>
/home/rodne/dev/cProjects/cpputest/cpputest_build/../src/CppUTest/SimpleString.cpp:240
        bufferSize_ = 0;
    b06e:	48 89 ef             	mov    %rbp,%rdi
    b071:	e8 4a f4 ff ff       	callq  a4c0 <_Unwind_Resume@plt>

000000000000b076 <_ZN18TeamCityTestOutputC2Ev.cold>:
_ZN17ConsoleTestOutputD4Ev():
/home/rodne/dev/cProjects/cpputest/cpputest_build/../include/CppUTest/TestOutput.h:121 (discriminator 1)
    b076:	48 8d 05 db b9 02 00 	lea    0x2b9db(%rip),%rax        # 36a58 <_ZTV17ConsoleTestOutput+0x10>
    b07d:	48 89 ef             	mov    %rbp,%rdi
    b080:	48 89 45 00          	mov    %rax,0x0(%rbp)
    b084:	e8 57 fd 00 00       	callq  1ade0 <_ZN10TestOutputD1Ev>
    b089:	4c 89 e7             	mov    %r12,%rdi
    b08c:	e8 2f f4 ff ff       	callq  a4c0 <_Unwind_Resume@plt>
_ZN18TeamCityTestOutputC2Ev.cold():
/home/rodne/dev/cProjects/cpputest/cpputest_build/../include/CppUTest/TestOutput.h:121 (discriminator 1)
    b091:	90                   	nop

000000000000b092 <_ZN18TeamCityTestOutput23printCurrentTestStartedERK10UtestShell.cold>:
_ZN18TeamCityTestOutput23printCurrentTestStartedERK10UtestShell():
/home/rodne/dev/cProjects/cpputest/cpputest_build/../src/CppUTest/TeamCityTestOutput.cpp:19 (discriminator 3)
    print("##teamcity[testStarted name='");
    printEscaped(test.getName().asCharString());
    print("']\n");
    if (!test.willRun()) {
        print("##teamcity[testIgnored name='");
        printEscaped(test.getName().asCharString());
    b092:	4c 89 e7             	mov    %r12,%rdi
    b095:	e8 36 75 00 00       	callq  125d0 <_ZN12SimpleStringD1Ev>
    b09a:	48 89 ef             	mov    %rbp,%rdi
    b09d:	e8 1e f4 ff ff       	callq  a4c0 <_Unwind_Resume@plt>
/home/rodne/dev/cProjects/cpputest/cpputest_build/../src/CppUTest/TeamCityTestOutput.cpp:15 (discriminator 3)
    printEscaped(test.getName().asCharString());
    b0a2:	4c 89 e7             	mov    %r12,%rdi
    b0a5:	e8 26 75 00 00       	callq  125d0 <_ZN12SimpleStringD1Ev>
    b0aa:	48 89 ef             	mov    %rbp,%rdi
    b0ad:	e8 0e f4 ff ff       	callq  a4c0 <_Unwind_Resume@plt>

000000000000b0b2 <_ZN18TeamCityTestOutput21printCurrentTestEndedERK10TestResult.cold>:
_ZN18TeamCityTestOutput21printCurrentTestEndedERK10TestResult():
/home/rodne/dev/cProjects/cpputest/cpputest_build/../src/CppUTest/TeamCityTestOutput.cpp:31 (discriminator 3)
{
    if (!currtest_)
        return;

    print("##teamcity[testFinished name='");
    printEscaped(currtest_->getName().asCharString());
    b0b2:	4c 89 e7             	mov    %r12,%rdi
    b0b5:	e8 16 75 00 00       	callq  125d0 <_ZN12SimpleStringD1Ev>
    b0ba:	48 89 ef             	mov    %rbp,%rdi
    b0bd:	e8 fe f3 ff ff       	callq  a4c0 <_Unwind_Resume@plt>

000000000000b0c2 <_ZN18TeamCityTestOutput24printCurrentGroupStartedERK10UtestShell.cold>:
_ZN18TeamCityTestOutput24printCurrentGroupStartedERK10UtestShell():
/home/rodne/dev/cProjects/cpputest/cpputest_build/../src/CppUTest/TeamCityTestOutput.cpp:39 (discriminator 1)
    print("']\n");
}

void TeamCityTestOutput::printCurrentGroupStarted(const UtestShell& test)
{
    currGroup_ = test.getGroup();
    b0c2:	4c 89 e7             	mov    %r12,%rdi
    b0c5:	e8 06 75 00 00       	callq  125d0 <_ZN12SimpleStringD1Ev>
    b0ca:	48 89 ef             	mov    %rbp,%rdi
    b0cd:	e8 ee f3 ff ff       	callq  a4c0 <_Unwind_Resume@plt>

000000000000b0d2 <_ZN18TeamCityTestOutput22printCurrentGroupEndedERK10TestResult.cold>:
_ZN18TeamCityTestOutput22printCurrentGroupEndedERK10TestResult():
/home/rodne/dev/cProjects/cpputest/cpputest_build/../src/CppUTest/TeamCityTestOutput.cpp:47 (discriminator 1)
    print("']\n");
}

void TeamCityTestOutput::printCurrentGroupEnded(const TestResult& /*res*/)
{
    if (currGroup_ == "")
    b0d2:	4c 89 e7             	mov    %r12,%rdi
    b0d5:	e8 f6 74 00 00       	callq  125d0 <_ZN12SimpleStringD1Ev>
    b0da:	48 89 ef             	mov    %rbp,%rdi
    b0dd:	e8 de f3 ff ff       	callq  a4c0 <_Unwind_Resume@plt>

000000000000b0e2 <_ZN18TeamCityTestOutput12printFailureERK11TestFailure.cold>:
_ZN18TeamCityTestOutput12printFailureERK11TestFailure():
/home/rodne/dev/cProjects/cpputest/cpputest_build/../src/CppUTest/TeamCityTestOutput.cpp:83 (discriminator 3)
}

void TeamCityTestOutput::printFailure(const TestFailure& failure)
{
    print("##teamcity[testFailed name='");
    printEscaped(failure.getTestNameOnly().asCharString());
    b0e2:	4c 89 ef             	mov    %r13,%rdi
    b0e5:	e8 e6 74 00 00       	callq  125d0 <_ZN12SimpleStringD1Ev>
    b0ea:	48 89 ef             	mov    %rbp,%rdi
    b0ed:	e8 ce f3 ff ff       	callq  a4c0 <_Unwind_Resume@plt>
/home/rodne/dev/cProjects/cpputest/cpputest_build/../src/CppUTest/TeamCityTestOutput.cpp:98 (discriminator 3)
    printEscaped(failure.getFileName().asCharString());
    print(":");
    print(failure.getFailureLineNumber());

    print("' details='");
    printEscaped(failure.getMessage().asCharString());
    b0f2:	4c 89 ef             	mov    %r13,%rdi
    b0f5:	e8 d6 74 00 00       	callq  125d0 <_ZN12SimpleStringD1Ev>
    b0fa:	48 89 ef             	mov    %rbp,%rdi
    b0fd:	e8 be f3 ff ff       	callq  a4c0 <_Unwind_Resume@plt>
/home/rodne/dev/cProjects/cpputest/cpputest_build/../src/CppUTest/TeamCityTestOutput.cpp:93 (discriminator 3)
    printEscaped(failure.getFileName().asCharString());
    b102:	4c 89 ef             	mov    %r13,%rdi
    b105:	e8 c6 74 00 00       	callq  125d0 <_ZN12SimpleStringD1Ev>
    b10a:	48 89 ef             	mov    %rbp,%rdi
    b10d:	e8 ae f3 ff ff       	callq  a4c0 <_Unwind_Resume@plt>
/home/rodne/dev/cProjects/cpputest/cpputest_build/../src/CppUTest/TeamCityTestOutput.cpp:87 (discriminator 3)
        print(failure.getTestFileName().asCharString());
    b112:	4c 89 ef             	mov    %r13,%rdi
    b115:	e8 b6 74 00 00       	callq  125d0 <_ZN12SimpleStringD1Ev>
    b11a:	48 89 ef             	mov    %rbp,%rdi
    b11d:	e8 9e f3 ff ff       	callq  a4c0 <_Unwind_Resume@plt>

000000000000b122 <_ZN11TestFailureC2EP10UtestShellPKcmRK12SimpleString.cold>:
_ZN11TestFailureC2EP10UtestShellPKcmRK12SimpleString():
/home/rodne/dev/cProjects/cpputest/cpputest_build/../src/CppUTest/TestFailure.cpp:35 (discriminator 9)
#include "CppUTest/TestOutput.h"
#include "CppUTest/SimpleString.h"
#include "CppUTest/PlatformSpecificFunctions.h"

TestFailure::TestFailure(UtestShell* test, const char* fileName, size_t lineNumber, const SimpleString& theMessage) :
    testName_(test->getFormattedName()), testNameOnly_(test->getName()), fileName_(fileName), lineNumber_(lineNumber), testFileName_(test->getFile()), testLineNumber_(test->getLineNumber()), message_(theMessage)
    b122:	4c 89 e7             	mov    %r12,%rdi
    b125:	e8 a6 74 00 00       	callq  125d0 <_ZN12SimpleStringD1Ev>
/home/rodne/dev/cProjects/cpputest/cpputest_build/../src/CppUTest/TestFailure.cpp:35 (discriminator 5)
    b12a:	4c 89 ff             	mov    %r15,%rdi
    b12d:	e8 9e 74 00 00       	callq  125d0 <_ZN12SimpleStringD1Ev>
/home/rodne/dev/cProjects/cpputest/cpputest_build/../src/CppUTest/TestFailure.cpp:35 (discriminator 3)
    b132:	4c 89 f7             	mov    %r14,%rdi
    b135:	e8 96 74 00 00       	callq  125d0 <_ZN12SimpleStringD1Ev>
/home/rodne/dev/cProjects/cpputest/cpputest_build/../src/CppUTest/TestFailure.cpp:35 (discriminator 1)
    b13a:	4c 89 ef             	mov    %r13,%rdi
    b13d:	e8 8e 74 00 00       	callq  125d0 <_ZN12SimpleStringD1Ev>
    b142:	48 89 ef             	mov    %rbp,%rdi
    b145:	e8 76 f3 ff ff       	callq  a4c0 <_Unwind_Resume@plt>

000000000000b14a <_ZN11TestFailureC2EP10UtestShellRK12SimpleString.cold>:
_ZN11TestFailureC2EP10UtestShellRK12SimpleString():
/home/rodne/dev/cProjects/cpputest/cpputest_build/../src/CppUTest/TestFailure.cpp:40 (discriminator 11)
{
}

TestFailure::TestFailure(UtestShell* test, const SimpleString& theMessage) :
    testName_(test->getFormattedName()), testNameOnly_(test->getName()), fileName_(test->getFile()), lineNumber_(test->getLineNumber()), testFileName_(test->getFile()), testLineNumber_(test->getLineNumber()), message_(theMessage)
    b14a:	4c 89 ff             	mov    %r15,%rdi
    b14d:	e8 7e 74 00 00       	callq  125d0 <_ZN12SimpleStringD1Ev>
/home/rodne/dev/cProjects/cpputest/cpputest_build/../src/CppUTest/TestFailure.cpp:40 (discriminator 7)
    b152:	4c 89 f7             	mov    %r14,%rdi
    b155:	e8 76 74 00 00       	callq  125d0 <_ZN12SimpleStringD1Ev>
/home/rodne/dev/cProjects/cpputest/cpputest_build/../src/CppUTest/TestFailure.cpp:40 (discriminator 3)
    b15a:	4c 89 ef             	mov    %r13,%rdi
    b15d:	e8 6e 74 00 00       	callq  125d0 <_ZN12SimpleStringD1Ev>
/home/rodne/dev/cProjects/cpputest/cpputest_build/../src/CppUTest/TestFailure.cpp:40 (discriminator 1)
    b162:	4c 89 e7             	mov    %r12,%rdi
    b165:	e8 66 74 00 00       	callq  125d0 <_ZN12SimpleStringD1Ev>
    b16a:	48 89 ef             	mov    %rbp,%rdi
    b16d:	e8 4e f3 ff ff       	callq  a4c0 <_Unwind_Resume@plt>

000000000000b172 <_ZN11TestFailureC2EP10UtestShellPKcm.cold>:
_ZN11TestFailureC2EP10UtestShellPKcm():
/home/rodne/dev/cProjects/cpputest/cpputest_build/../src/CppUTest/TestFailure.cpp:45 (discriminator 9)
{
}

TestFailure::TestFailure(UtestShell* test, const char* fileName, size_t lineNum) :
    testName_(test->getFormattedName()), testNameOnly_(test->getName()), fileName_(fileName), lineNumber_(lineNum), testFileName_(test->getFile()), testLineNumber_(test->getLineNumber()), message_("no message")
    b172:	4c 89 e7             	mov    %r12,%rdi
    b175:	e8 56 74 00 00       	callq  125d0 <_ZN12SimpleStringD1Ev>
/home/rodne/dev/cProjects/cpputest/cpputest_build/../src/CppUTest/TestFailure.cpp:45 (discriminator 5)
    b17a:	4c 89 ff             	mov    %r15,%rdi
    b17d:	e8 4e 74 00 00       	callq  125d0 <_ZN12SimpleStringD1Ev>
/home/rodne/dev/cProjects/cpputest/cpputest_build/../src/CppUTest/TestFailure.cpp:45 (discriminator 3)
    b182:	4c 89 f7             	mov    %r14,%rdi
    b185:	e8 46 74 00 00       	callq  125d0 <_ZN12SimpleStringD1Ev>
/home/rodne/dev/cProjects/cpputest/cpputest_build/../src/CppUTest/TestFailure.cpp:45 (discriminator 1)
    b18a:	4c 89 ef             	mov    %r13,%rdi
    b18d:	e8 3e 74 00 00       	callq  125d0 <_ZN12SimpleStringD1Ev>
    b192:	48 89 ef             	mov    %rbp,%rdi
    b195:	e8 26 f3 ff ff       	callq  a4c0 <_Unwind_Resume@plt>

000000000000b19a <_ZN11TestFailureC2ERKS_.cold>:
_ZN11TestFailureC2ERKS_():
/home/rodne/dev/cProjects/cpputest/cpputest_build/../src/CppUTest/TestFailure.cpp:50 (discriminator 7)
{
}

TestFailure::TestFailure(const TestFailure& f) :
    testName_(f.testName_), testNameOnly_(f.testNameOnly_), fileName_(f.fileName_), lineNumber_(f.lineNumber_), testFileName_(f.testFileName_), testLineNumber_(f.testLineNumber_), message_(f.message_)
    b19a:	4c 89 ff             	mov    %r15,%rdi
    b19d:	e8 2e 74 00 00       	callq  125d0 <_ZN12SimpleStringD1Ev>
/home/rodne/dev/cProjects/cpputest/cpputest_build/../src/CppUTest/TestFailure.cpp:50 (discriminator 5)
    b1a2:	4c 89 f7             	mov    %r14,%rdi
    b1a5:	e8 26 74 00 00       	callq  125d0 <_ZN12SimpleStringD1Ev>
/home/rodne/dev/cProjects/cpputest/cpputest_build/../src/CppUTest/TestFailure.cpp:50 (discriminator 3)
    b1aa:	4c 89 ef             	mov    %r13,%rdi
    b1ad:	e8 1e 74 00 00       	callq  125d0 <_ZN12SimpleStringD1Ev>
/home/rodne/dev/cProjects/cpputest/cpputest_build/../src/CppUTest/TestFailure.cpp:50 (discriminator 1)
    b1b2:	4c 89 e7             	mov    %r12,%rdi
    b1b5:	e8 16 74 00 00       	callq  125d0 <_ZN12SimpleStringD1Ev>
    b1ba:	48 89 ef             	mov    %rbp,%rdi
    b1bd:	e8 fe f2 ff ff       	callq  a4c0 <_Unwind_Resume@plt>

000000000000b1c2 <_ZN11TestFailure27createDifferenceAtPosStringERK12SimpleStringmm.cold>:
_ZN11TestFailure27createDifferenceAtPosStringERK12SimpleStringmm():
/home/rodne/dev/cProjects/cpputest/cpputest_build/../src/CppUTest/TestFailure.cpp:123 (discriminator 7)

    result += "\n";
    result += StringFromFormat("\t%s%s>\n", differentString.asCharString(), actualString.subString(offset, extraCharactersWindow).asCharString());


    result += StringFromFormat("\t%s^", SimpleString(" ", (differentString.size() + halfOfExtraCharactersWindow)).asCharString());
    b1c2:	48 89 ef             	mov    %rbp,%rdi
    b1c5:	e8 06 74 00 00       	callq  125d0 <_ZN12SimpleStringD1Ev>
    b1ca:	48 8b 6c 24 08       	mov    0x8(%rsp),%rbp
/home/rodne/dev/cProjects/cpputest/cpputest_build/../src/CppUTest/TestFailure.cpp:123 (discriminator 5)
    b1cf:	4c 89 ef             	mov    %r13,%rdi
    b1d2:	e8 f9 73 00 00       	callq  125d0 <_ZN12SimpleStringD1Ev>
/home/rodne/dev/cProjects/cpputest/cpputest_build/../src/CppUTest/TestFailure.cpp:117
    SimpleString differentString = StringFromFormat("difference starts at position %lu at: <", (unsigned long) reportedPosition);
    b1d7:	4c 89 ff             	mov    %r15,%rdi
    b1da:	e8 f1 73 00 00       	callq  125d0 <_ZN12SimpleStringD1Ev>
/home/rodne/dev/cProjects/cpputest/cpputest_build/../src/CppUTest/TestFailure.cpp:116
    SimpleString actualString = paddingForPreventingOutOfBounds + actual + paddingForPreventingOutOfBounds;
    b1df:	48 89 df             	mov    %rbx,%rdi
    b1e2:	48 89 eb             	mov    %rbp,%rbx
    b1e5:	e8 e6 73 00 00       	callq  125d0 <_ZN12SimpleStringD1Ev>
    b1ea:	eb 08                	jmp    b1f4 <_ZN11TestFailure27createDifferenceAtPosStringERK12SimpleStringmm.cold+0x32>
    b1ec:	48 89 ef             	mov    %rbp,%rdi
    b1ef:	e8 dc 73 00 00       	callq  125d0 <_ZN12SimpleStringD1Ev>
/home/rodne/dev/cProjects/cpputest/cpputest_build/../src/CppUTest/TestFailure.cpp:115
    SimpleString paddingForPreventingOutOfBounds (" ", halfOfExtraCharactersWindow);
    b1f4:	4c 89 f7             	mov    %r14,%rdi
    b1f7:	e8 d4 73 00 00       	callq  125d0 <_ZN12SimpleStringD1Ev>
    b1fc:	4c 89 e7             	mov    %r12,%rdi
    b1ff:	e8 cc 73 00 00       	callq  125d0 <_ZN12SimpleStringD1Ev>
    b204:	48 89 df             	mov    %rbx,%rdi
    b207:	e8 b4 f2 ff ff       	callq  a4c0 <_Unwind_Resume@plt>
/home/rodne/dev/cProjects/cpputest/cpputest_build/../src/CppUTest/TestFailure.cpp:120 (discriminator 8)
    result += StringFromFormat("\t%s%s>\n", differentString.asCharString(), actualString.subString(offset, extraCharactersWindow).asCharString());
    b20c:	48 89 ef             	mov    %rbp,%rdi
    b20f:	e8 bc 73 00 00       	callq  125d0 <_ZN12SimpleStringD1Ev>
    b214:	48 8b 6c 24 08       	mov    0x8(%rsp),%rbp
/home/rodne/dev/cProjects/cpputest/cpputest_build/../src/CppUTest/TestFailure.cpp:120 (discriminator 6)
    b219:	4c 89 ef             	mov    %r13,%rdi
    b21c:	e8 af 73 00 00       	callq  125d0 <_ZN12SimpleStringD1Ev>
    b221:	eb b4                	jmp    b1d7 <_ZN11TestFailure27createDifferenceAtPosStringERK12SimpleStringmm.cold+0x15>
_ZN11TestFailure27createDifferenceAtPosStringERK12SimpleStringmm.cold():
/home/rodne/dev/cProjects/cpputest/cpputest_build/../src/CppUTest/TestFailure.cpp:120 (discriminator 6)
    b223:	90                   	nop

000000000000b224 <_ZN11TestFailure14createUserTextERK12SimpleString.cold>:
_ZN11TestFailure14createUserTextERK12SimpleString():
/home/rodne/dev/cProjects/cpputest/cpputest_build/../src/CppUTest/TestFailure.cpp:135 (discriminator 2)
    if (!text.isEmpty())
    {
        //This is a kludge to turn off "Message: " for this case.
        //I don't think "Message: " adds anything, as you get to see the
        //message. I propose we remove "Message: " lead in
        if (!text.startsWith("LONGS_EQUAL"))
    b224:	4c 89 ef             	mov    %r13,%rdi
    b227:	e8 a4 73 00 00       	callq  125d0 <_ZN12SimpleStringD1Ev>
    b22c:	4c 89 e7             	mov    %r12,%rdi
    b22f:	e8 9c 73 00 00       	callq  125d0 <_ZN12SimpleStringD1Ev>
    b234:	48 89 ef             	mov    %rbp,%rdi
    b237:	e8 84 f2 ff ff       	callq  a4c0 <_Unwind_Resume@plt>

000000000000b23c <_ZN13EqualsFailureC2EP10UtestShellPKcmS3_S3_RK12SimpleString.cold>:
_ZN13EqualsFailureC2EP10UtestShellPKcmS3_S3_RK12SimpleString():
/home/rodne/dev/cProjects/cpputest/cpputest_build/../src/CppUTest/TestFailure.cpp:148 (discriminator 6)
EqualsFailure::EqualsFailure(UtestShell* test, const char* fileName, size_t lineNumber, const char* expected, const char* actual, const SimpleString& text) :
    TestFailure(test, fileName, lineNumber)
{
    message_ = createUserText(text);

    message_ += createButWasString(StringFromOrNull(expected), StringFromOrNull(actual));
    b23c:	4c 89 f7             	mov    %r14,%rdi
    b23f:	e8 8c 73 00 00       	callq  125d0 <_ZN12SimpleStringD1Ev>
/home/rodne/dev/cProjects/cpputest/cpputest_build/../src/CppUTest/TestFailure.cpp:148 (discriminator 4)
    b244:	4c 89 ef             	mov    %r13,%rdi
    b247:	4d 89 fd             	mov    %r15,%r13
    b24a:	e8 81 73 00 00       	callq  125d0 <_ZN12SimpleStringD1Ev>
/home/rodne/dev/cProjects/cpputest/cpputest_build/../src/CppUTest/TestFailure.cpp:148 (discriminator 2)
    b24f:	4c 89 e7             	mov    %r12,%rdi
    b252:	e8 79 73 00 00       	callq  125d0 <_ZN12SimpleStringD1Ev>
/home/rodne/dev/cProjects/cpputest/cpputest_build/../src/CppUTest/TestFailure.cpp:144
    TestFailure(test, fileName, lineNumber)
    b257:	48 89 ef             	mov    %rbp,%rdi
    b25a:	e8 81 a5 00 00       	callq  157e0 <_ZN11TestFailureD1Ev>
    b25f:	4c 89 ef             	mov    %r13,%rdi
    b262:	e8 59 f2 ff ff       	callq  a4c0 <_Unwind_Resume@plt>
/home/rodne/dev/cProjects/cpputest/cpputest_build/../src/CppUTest/TestFailure.cpp:146 (discriminator 2)
    message_ = createUserText(text);
    b267:	4c 89 e7             	mov    %r12,%rdi
    b26a:	e8 61 73 00 00       	callq  125d0 <_ZN12SimpleStringD1Ev>
    b26f:	eb e6                	jmp    b257 <_ZN13EqualsFailureC2EP10UtestShellPKcmS3_S3_RK12SimpleString.cold+0x1b>
_ZN13EqualsFailureC2EP10UtestShellPKcmS3_S3_RK12SimpleString.cold():
/home/rodne/dev/cProjects/cpputest/cpputest_build/../src/CppUTest/TestFailure.cpp:146 (discriminator 2)
    b271:	90                   	nop

000000000000b272 <_ZN13EqualsFailureC2EP10UtestShellPKcmRK12SimpleStringS6_S6_.cold>:
_ZN13EqualsFailureC2EP10UtestShellPKcmRK12SimpleStringS6_S6_():
/home/rodne/dev/cProjects/cpputest/cpputest_build/../src/CppUTest/TestFailure.cpp:156 (discriminator 2)
EqualsFailure::EqualsFailure(UtestShell* test, const char* fileName, size_t lineNumber, const SimpleString& expected, const SimpleString& actual, const SimpleString& text)
    : TestFailure(test, fileName, lineNumber)
{
    message_ = createUserText(text);

    message_ += createButWasString(expected, actual);
    b272:	4c 89 e7             	mov    %r12,%rdi
    b275:	e8 56 73 00 00       	callq  125d0 <_ZN12SimpleStringD1Ev>
/home/rodne/dev/cProjects/cpputest/cpputest_build/../src/CppUTest/TestFailure.cpp:152
    : TestFailure(test, fileName, lineNumber)
    b27a:	48 89 ef             	mov    %rbp,%rdi
    b27d:	e8 5e a5 00 00       	callq  157e0 <_ZN11TestFailureD1Ev>
    b282:	4c 89 ef             	mov    %r13,%rdi
    b285:	e8 36 f2 ff ff       	callq  a4c0 <_Unwind_Resume@plt>
/home/rodne/dev/cProjects/cpputest/cpputest_build/../src/CppUTest/TestFailure.cpp:154 (discriminator 2)
    message_ = createUserText(text);
    b28a:	4c 89 e7             	mov    %r12,%rdi
    b28d:	e8 3e 73 00 00       	callq  125d0 <_ZN12SimpleStringD1Ev>
    b292:	eb e6                	jmp    b27a <_ZN13EqualsFailureC2EP10UtestShellPKcmRK12SimpleStringS6_S6_.cold+0x8>

000000000000b294 <_ZN19DoublesEqualFailureC2EP10UtestShellPKcmdddRK12SimpleString.cold>:
_ZN19DoublesEqualFailureC2EP10UtestShellPKcmdddRK12SimpleString():
/home/rodne/dev/cProjects/cpputest/cpputest_build/../src/CppUTest/TestFailure.cpp:164 (discriminator 6)
DoublesEqualFailure::DoublesEqualFailure(UtestShell* test, const char* fileName, size_t lineNumber, double expected, double actual, double threshold, const SimpleString& text)
: TestFailure(test, fileName, lineNumber)
{
    message_ = createUserText(text);

    message_ += createButWasString(StringFrom(expected, 7), StringFrom(actual, 7));
    b294:	4c 89 ff             	mov    %r15,%rdi
    b297:	e8 34 73 00 00       	callq  125d0 <_ZN12SimpleStringD1Ev>
/home/rodne/dev/cProjects/cpputest/cpputest_build/../src/CppUTest/TestFailure.cpp:164 (discriminator 4)
    b29c:	4c 89 f7             	mov    %r14,%rdi
    b29f:	e8 2c 73 00 00       	callq  125d0 <_ZN12SimpleStringD1Ev>
/home/rodne/dev/cProjects/cpputest/cpputest_build/../src/CppUTest/TestFailure.cpp:164 (discriminator 2)
    b2a4:	48 89 ef             	mov    %rbp,%rdi
    b2a7:	e8 24 73 00 00       	callq  125d0 <_ZN12SimpleStringD1Ev>
/home/rodne/dev/cProjects/cpputest/cpputest_build/../src/CppUTest/TestFailure.cpp:160
: TestFailure(test, fileName, lineNumber)
    b2ac:	4c 89 e7             	mov    %r12,%rdi
    b2af:	e8 2c a5 00 00       	callq  157e0 <_ZN11TestFailureD1Ev>
    b2b4:	4c 89 ef             	mov    %r13,%rdi
    b2b7:	e8 04 f2 ff ff       	callq  a4c0 <_Unwind_Resume@plt>
/home/rodne/dev/cProjects/cpputest/cpputest_build/../src/CppUTest/TestFailure.cpp:166 (discriminator 2)
    message_ += " threshold used was <";
    message_ += StringFrom(threshold, 7);
    b2bc:	48 89 ef             	mov    %rbp,%rdi
    b2bf:	e8 0c 73 00 00       	callq  125d0 <_ZN12SimpleStringD1Ev>
    b2c4:	eb e6                	jmp    b2ac <_ZN19DoublesEqualFailureC2EP10UtestShellPKcmdddRK12SimpleString.cold+0x18>
/home/rodne/dev/cProjects/cpputest/cpputest_build/../src/CppUTest/TestFailure.cpp:162 (discriminator 2)
    message_ = createUserText(text);
    b2c6:	48 89 ef             	mov    %rbp,%rdi
    b2c9:	e8 02 73 00 00       	callq  125d0 <_ZN12SimpleStringD1Ev>
    b2ce:	eb dc                	jmp    b2ac <_ZN19DoublesEqualFailureC2EP10UtestShellPKcmdddRK12SimpleString.cold+0x18>

000000000000b2d0 <_ZN17CheckEqualFailureC2EP10UtestShellPKcmRK12SimpleStringS6_S6_.cold>:
_ZN17CheckEqualFailureC2EP10UtestShellPKcmRK12SimpleStringS6_S6_():
/home/rodne/dev/cProjects/cpputest/cpputest_build/../src/CppUTest/TestFailure.cpp:189 (discriminator 2)
    for (failStart = 0; actual.at(failStart) == expected.at(failStart); failStart++)
        ;
    size_t failStartPrintable;
    for (failStartPrintable = 0; printableActual.at(failStartPrintable) == printableExpected.at(failStartPrintable); failStartPrintable++)
        ;
    message_ += createDifferenceAtPosString(printableActual, failStartPrintable, failStart);
    b2d0:	48 8b 7c 24 10       	mov    0x10(%rsp),%rdi
    b2d5:	e8 f6 72 00 00       	callq  125d0 <_ZN12SimpleStringD1Ev>
/home/rodne/dev/cProjects/cpputest/cpputest_build/../src/CppUTest/TestFailure.cpp:179
    SimpleString printableActual = PrintableStringFromOrNull(actual.asCharString());
    b2da:	4c 89 e7             	mov    %r12,%rdi
    b2dd:	e8 ee 72 00 00       	callq  125d0 <_ZN12SimpleStringD1Ev>
/home/rodne/dev/cProjects/cpputest/cpputest_build/../src/CppUTest/TestFailure.cpp:178
    SimpleString printableExpected = PrintableStringFromOrNull(expected.asCharString());
    b2e2:	4c 89 ef             	mov    %r13,%rdi
    b2e5:	48 89 dd             	mov    %rbx,%rbp
    b2e8:	e8 e3 72 00 00       	callq  125d0 <_ZN12SimpleStringD1Ev>
/home/rodne/dev/cProjects/cpputest/cpputest_build/../src/CppUTest/TestFailure.cpp:174
: TestFailure(test, fileName, lineNumber)
    b2ed:	48 8b 7c 24 18       	mov    0x18(%rsp),%rdi
    b2f2:	e8 e9 a4 00 00       	callq  157e0 <_ZN11TestFailureD1Ev>
    b2f7:	48 89 ef             	mov    %rbp,%rdi
    b2fa:	e8 c1 f1 ff ff       	callq  a4c0 <_Unwind_Resume@plt>
/home/rodne/dev/cProjects/cpputest/cpputest_build/../src/CppUTest/TestFailure.cpp:181 (discriminator 2)
    message_ += createButWasString(printableExpected, printableActual);
    b2ff:	48 8b 7c 24 10       	mov    0x10(%rsp),%rdi
    b304:	e8 c7 72 00 00       	callq  125d0 <_ZN12SimpleStringD1Ev>
    b309:	eb cf                	jmp    b2da <_ZN17CheckEqualFailureC2EP10UtestShellPKcmRK12SimpleStringS6_S6_.cold+0xa>
/home/rodne/dev/cProjects/cpputest/cpputest_build/../src/CppUTest/TestFailure.cpp:176 (discriminator 2)
    message_ = createUserText(text);
    b30b:	48 8b 7c 24 10       	mov    0x10(%rsp),%rdi
    b310:	e8 bb 72 00 00       	callq  125d0 <_ZN12SimpleStringD1Ev>
    b315:	eb d6                	jmp    b2ed <_ZN17CheckEqualFailureC2EP10UtestShellPKcmRK12SimpleStringS6_S6_.cold+0x1d>
_ZN17CheckEqualFailureC2EP10UtestShellPKcmRK12SimpleStringS6_S6_.cold():
/home/rodne/dev/cProjects/cpputest/cpputest_build/../src/CppUTest/TestFailure.cpp:176 (discriminator 2)
    b317:	90                   	nop

000000000000b318 <_ZN17ComparisonFailureC2EP10UtestShellPKcmRK12SimpleStringS6_S6_.cold>:
_ZN17ComparisonFailureC2EP10UtestShellPKcmRK12SimpleStringS6_S6_():
/home/rodne/dev/cProjects/cpputest/cpputest_build/../src/CppUTest/TestFailure.cpp:195 (discriminator 2)
}

ComparisonFailure::ComparisonFailure(UtestShell *test, const char *fileName, size_t lineNumber, const SimpleString& checkString, const SimpleString &comparisonString, const SimpleString &text)
: TestFailure(test, fileName, lineNumber)
{
    message_ = createUserText(text);
    b318:	4c 89 ef             	mov    %r13,%rdi
    b31b:	e8 b0 72 00 00       	callq  125d0 <_ZN12SimpleStringD1Ev>
/home/rodne/dev/cProjects/cpputest/cpputest_build/../src/CppUTest/TestFailure.cpp:193
: TestFailure(test, fileName, lineNumber)
    b320:	48 89 ef             	mov    %rbp,%rdi
    b323:	e8 b8 a4 00 00       	callq  157e0 <_ZN11TestFailureD1Ev>
    b328:	4c 89 e7             	mov    %r12,%rdi
    b32b:	e8 90 f1 ff ff       	callq  a4c0 <_Unwind_Resume@plt>

000000000000b330 <_ZN15ContainsFailureC2EP10UtestShellPKcmRK12SimpleStringS6_S6_.cold>:
_ZN15ContainsFailureC2EP10UtestShellPKcmRK12SimpleStringS6_S6_():
/home/rodne/dev/cProjects/cpputest/cpputest_build/../src/CppUTest/TestFailure.cpp:207 (discriminator 4)
ContainsFailure::ContainsFailure(UtestShell* test, const char* fileName, size_t lineNumber, const SimpleString& expected, const SimpleString& actual, const SimpleString& text)
: TestFailure(test, fileName, lineNumber)
{
    message_ = createUserText(text);

    message_ += StringFromFormat("actual <%s>\n\tdid not contain  <%s>", actual.asCharString(), expected.asCharString());
    b330:	48 89 ef             	mov    %rbp,%rdi
    b333:	e8 98 72 00 00       	callq  125d0 <_ZN12SimpleStringD1Ev>
/home/rodne/dev/cProjects/cpputest/cpputest_build/../src/CppUTest/TestFailure.cpp:203
: TestFailure(test, fileName, lineNumber)
    b338:	4c 89 e7             	mov    %r12,%rdi
    b33b:	e8 a0 a4 00 00       	callq  157e0 <_ZN11TestFailureD1Ev>
    b340:	4c 89 ef             	mov    %r13,%rdi
    b343:	e8 78 f1 ff ff       	callq  a4c0 <_Unwind_Resume@plt>
/home/rodne/dev/cProjects/cpputest/cpputest_build/../src/CppUTest/TestFailure.cpp:205 (discriminator 2)
    message_ = createUserText(text);
    b348:	48 89 ef             	mov    %rbp,%rdi
    b34b:	e8 80 72 00 00       	callq  125d0 <_ZN12SimpleStringD1Ev>
    b350:	eb e6                	jmp    b338 <_ZN15ContainsFailureC2EP10UtestShellPKcmRK12SimpleStringS6_S6_.cold+0x8>

000000000000b352 <_ZN12CheckFailureC2EP10UtestShellPKcmRK12SimpleStringS6_S6_.cold>:
_ZN12CheckFailureC2EP10UtestShellPKcmRK12SimpleStringS6_S6_():
/home/rodne/dev/cProjects/cpputest/cpputest_build/../src/CppUTest/TestFailure.cpp:213 (discriminator 2)
}

CheckFailure::CheckFailure(UtestShell* test, const char* fileName, size_t lineNumber, const SimpleString& checkString, const SimpleString& conditionString, const SimpleString& text)
: TestFailure(test, fileName, lineNumber)
{
    message_ = createUserText(text);
    b352:	4c 89 ef             	mov    %r13,%rdi
    b355:	e8 76 72 00 00       	callq  125d0 <_ZN12SimpleStringD1Ev>
/home/rodne/dev/cProjects/cpputest/cpputest_build/../src/CppUTest/TestFailure.cpp:211
: TestFailure(test, fileName, lineNumber)
    b35a:	48 89 ef             	mov    %rbp,%rdi
    b35d:	e8 7e a4 00 00       	callq  157e0 <_ZN11TestFailureD1Ev>
    b362:	4c 89 e7             	mov    %r12,%rdi
    b365:	e8 56 f1 ff ff       	callq  a4c0 <_Unwind_Resume@plt>

000000000000b36a <_ZN11FailFailureC2EP10UtestShellPKcmRK12SimpleString.cold>:
_ZN11FailFailureC2EP10UtestShellPKcmRK12SimpleString():
/home/rodne/dev/cProjects/cpputest/cpputest_build/../src/CppUTest/TestFailure.cpp:221
    message_ += "(";
    message_ += conditionString;
    message_ += ") failed";
}

FailFailure::FailFailure(UtestShell* test, const char* fileName, size_t lineNumber, const SimpleString& message) : TestFailure(test, fileName, lineNumber)
    b36a:	48 89 ef             	mov    %rbp,%rdi
    b36d:	e8 6e a4 00 00       	callq  157e0 <_ZN11TestFailureD1Ev>
    b372:	4c 89 e7             	mov    %r12,%rdi
    b375:	e8 46 f1 ff ff       	callq  a4c0 <_Unwind_Resume@plt>

000000000000b37a <_ZN17LongsEqualFailureC2EP10UtestShellPKcmllRK12SimpleString.cold>:
_ZN17LongsEqualFailureC2EP10UtestShellPKcmllRK12SimpleString():
/home/rodne/dev/cProjects/cpputest/cpputest_build/../src/CppUTest/TestFailure.cpp:238 (discriminator 2)

    SimpleString::padStringsToSameLength(aDecimal, eDecimal, ' ');

    SimpleString actualReported = aDecimal + " " + BracketsFormattedHexStringFrom(actual);
    SimpleString expectedReported = eDecimal + " " + BracketsFormattedHexStringFrom(expected);
    message_ += createButWasString(expectedReported, actualReported);
    b37a:	48 89 ef             	mov    %rbp,%rdi
    b37d:	4c 89 ed             	mov    %r13,%rbp
    b380:	e8 4b 72 00 00       	callq  125d0 <_ZN12SimpleStringD1Ev>
/home/rodne/dev/cProjects/cpputest/cpputest_build/../src/CppUTest/TestFailure.cpp:237
    SimpleString expectedReported = eDecimal + " " + BracketsFormattedHexStringFrom(expected);
    b385:	48 8b 7c 24 08       	mov    0x8(%rsp),%rdi
    b38a:	e8 41 72 00 00       	callq  125d0 <_ZN12SimpleStringD1Ev>
/home/rodne/dev/cProjects/cpputest/cpputest_build/../src/CppUTest/TestFailure.cpp:236
    SimpleString actualReported = aDecimal + " " + BracketsFormattedHexStringFrom(actual);
    b38f:	48 8b 7c 24 10       	mov    0x10(%rsp),%rdi
    b394:	e8 37 72 00 00       	callq  125d0 <_ZN12SimpleStringD1Ev>
/home/rodne/dev/cProjects/cpputest/cpputest_build/../src/CppUTest/TestFailure.cpp:232
    SimpleString eDecimal = StringFrom(expected);
    b399:	48 89 df             	mov    %rbx,%rdi
    b39c:	e8 2f 72 00 00       	callq  125d0 <_ZN12SimpleStringD1Ev>
/home/rodne/dev/cProjects/cpputest/cpputest_build/../src/CppUTest/TestFailure.cpp:231
    SimpleString aDecimal = StringFrom(actual);
    b3a1:	4c 89 ff             	mov    %r15,%rdi
    b3a4:	e8 27 72 00 00       	callq  125d0 <_ZN12SimpleStringD1Ev>
/home/rodne/dev/cProjects/cpputest/cpputest_build/../src/CppUTest/TestFailure.cpp:227
: TestFailure(test, fileName, lineNumber)
    b3a9:	4c 89 e7             	mov    %r12,%rdi
    b3ac:	e8 2f a4 00 00       	callq  157e0 <_ZN11TestFailureD1Ev>
    b3b1:	48 89 ef             	mov    %rbp,%rdi
    b3b4:	e8 07 f1 ff ff       	callq  a4c0 <_Unwind_Resume@plt>
    b3b9:	4c 89 f7             	mov    %r14,%rdi
    b3bc:	e8 0f 72 00 00       	callq  125d0 <_ZN12SimpleStringD1Ev>
    b3c1:	4c 8b 74 24 08       	mov    0x8(%rsp),%r14
    b3c6:	4c 89 ef             	mov    %r13,%rdi
    b3c9:	e8 02 72 00 00       	callq  125d0 <_ZN12SimpleStringD1Ev>
    b3ce:	48 89 ef             	mov    %rbp,%rdi
    b3d1:	4c 89 f5             	mov    %r14,%rbp
    b3d4:	e8 f7 71 00 00       	callq  125d0 <_ZN12SimpleStringD1Ev>
    b3d9:	eb b4                	jmp    b38f <_ZN17LongsEqualFailureC2EP10UtestShellPKcmllRK12SimpleString.cold+0x15>
    b3db:	4c 89 f7             	mov    %r14,%rdi
    b3de:	e8 ed 71 00 00       	callq  125d0 <_ZN12SimpleStringD1Ev>
    b3e3:	4c 8b 74 24 08       	mov    0x8(%rsp),%r14
    b3e8:	4c 89 ef             	mov    %r13,%rdi
    b3eb:	e8 e0 71 00 00       	callq  125d0 <_ZN12SimpleStringD1Ev>
    b3f0:	48 89 ef             	mov    %rbp,%rdi
    b3f3:	4c 89 f5             	mov    %r14,%rbp
    b3f6:	e8 d5 71 00 00       	callq  125d0 <_ZN12SimpleStringD1Ev>
    b3fb:	eb 9c                	jmp    b399 <_ZN17LongsEqualFailureC2EP10UtestShellPKcmllRK12SimpleString.cold+0x1f>
/home/rodne/dev/cProjects/cpputest/cpputest_build/../src/CppUTest/TestFailure.cpp:229 (discriminator 2)
    message_ = createUserText(text);
    b3fd:	48 89 ef             	mov    %rbp,%rdi
    b400:	48 89 dd             	mov    %rbx,%rbp
    b403:	e8 c8 71 00 00       	callq  125d0 <_ZN12SimpleStringD1Ev>
    b408:	eb 9f                	jmp    b3a9 <_ZN17LongsEqualFailureC2EP10UtestShellPKcmllRK12SimpleString.cold+0x2f>

000000000000b40a <_ZN25UnsignedLongsEqualFailureC2EP10UtestShellPKcmmmRK12SimpleString.cold>:
_ZN25UnsignedLongsEqualFailureC2EP10UtestShellPKcmmmRK12SimpleString():
/home/rodne/dev/cProjects/cpputest/cpputest_build/../src/CppUTest/TestFailure.cpp:254 (discriminator 2)
    SimpleString::padStringsToSameLength(aDecimal, eDecimal, ' ');

    SimpleString actualReported = aDecimal + " " + BracketsFormattedHexStringFrom(actual);
    SimpleString expectedReported = eDecimal + " " + BracketsFormattedHexStringFrom(expected);

    message_ += createButWasString(expectedReported, actualReported);
    b40a:	48 89 ef             	mov    %rbp,%rdi
    b40d:	4c 89 ed             	mov    %r13,%rbp
    b410:	e8 bb 71 00 00       	callq  125d0 <_ZN12SimpleStringD1Ev>
/home/rodne/dev/cProjects/cpputest/cpputest_build/../src/CppUTest/TestFailure.cpp:252
    SimpleString expectedReported = eDecimal + " " + BracketsFormattedHexStringFrom(expected);
    b415:	48 8b 7c 24 08       	mov    0x8(%rsp),%rdi
    b41a:	e8 b1 71 00 00       	callq  125d0 <_ZN12SimpleStringD1Ev>
/home/rodne/dev/cProjects/cpputest/cpputest_build/../src/CppUTest/TestFailure.cpp:251
    SimpleString actualReported = aDecimal + " " + BracketsFormattedHexStringFrom(actual);
    b41f:	48 8b 7c 24 10       	mov    0x10(%rsp),%rdi
    b424:	e8 a7 71 00 00       	callq  125d0 <_ZN12SimpleStringD1Ev>
/home/rodne/dev/cProjects/cpputest/cpputest_build/../src/CppUTest/TestFailure.cpp:247
    SimpleString eDecimal = StringFrom(expected);
    b429:	48 89 df             	mov    %rbx,%rdi
    b42c:	e8 9f 71 00 00       	callq  125d0 <_ZN12SimpleStringD1Ev>
/home/rodne/dev/cProjects/cpputest/cpputest_build/../src/CppUTest/TestFailure.cpp:246
    SimpleString aDecimal = StringFrom(actual);
    b431:	4c 89 ff             	mov    %r15,%rdi
    b434:	e8 97 71 00 00       	callq  125d0 <_ZN12SimpleStringD1Ev>
/home/rodne/dev/cProjects/cpputest/cpputest_build/../src/CppUTest/TestFailure.cpp:242
: TestFailure(test, fileName, lineNumber)
    b439:	4c 89 e7             	mov    %r12,%rdi
    b43c:	e8 9f a3 00 00       	callq  157e0 <_ZN11TestFailureD1Ev>
    b441:	48 89 ef             	mov    %rbp,%rdi
    b444:	e8 77 f0 ff ff       	callq  a4c0 <_Unwind_Resume@plt>
    b449:	4c 89 f7             	mov    %r14,%rdi
    b44c:	e8 7f 71 00 00       	callq  125d0 <_ZN12SimpleStringD1Ev>
    b451:	4c 8b 74 24 08       	mov    0x8(%rsp),%r14
    b456:	4c 89 ef             	mov    %r13,%rdi
    b459:	e8 72 71 00 00       	callq  125d0 <_ZN12SimpleStringD1Ev>
    b45e:	48 89 ef             	mov    %rbp,%rdi
    b461:	4c 89 f5             	mov    %r14,%rbp
    b464:	e8 67 71 00 00       	callq  125d0 <_ZN12SimpleStringD1Ev>
    b469:	eb b4                	jmp    b41f <_ZN25UnsignedLongsEqualFailureC2EP10UtestShellPKcmmmRK12SimpleString.cold+0x15>
    b46b:	4c 89 f7             	mov    %r14,%rdi
    b46e:	e8 5d 71 00 00       	callq  125d0 <_ZN12SimpleStringD1Ev>
    b473:	4c 8b 74 24 08       	mov    0x8(%rsp),%r14
    b478:	4c 89 ef             	mov    %r13,%rdi
    b47b:	e8 50 71 00 00       	callq  125d0 <_ZN12SimpleStringD1Ev>
    b480:	48 89 ef             	mov    %rbp,%rdi
    b483:	4c 89 f5             	mov    %r14,%rbp
    b486:	e8 45 71 00 00       	callq  125d0 <_ZN12SimpleStringD1Ev>
    b48b:	eb 9c                	jmp    b429 <_ZN25UnsignedLongsEqualFailureC2EP10UtestShellPKcmmmRK12SimpleString.cold+0x1f>
/home/rodne/dev/cProjects/cpputest/cpputest_build/../src/CppUTest/TestFailure.cpp:244 (discriminator 2)
    message_ = createUserText(text);
    b48d:	48 89 ef             	mov    %rbp,%rdi
    b490:	48 89 dd             	mov    %rbx,%rbp
    b493:	e8 38 71 00 00       	callq  125d0 <_ZN12SimpleStringD1Ev>
    b498:	eb 9f                	jmp    b439 <_ZN25UnsignedLongsEqualFailureC2EP10UtestShellPKcmmmRK12SimpleString.cold+0x2f>

000000000000b49a <_ZN21LongLongsEqualFailureC2EP10UtestShellPKcmxxRK12SimpleString.cold>:
_ZN21LongLongsEqualFailureC2EP10UtestShellPKcmxxRK12SimpleString():
/home/rodne/dev/cProjects/cpputest/cpputest_build/../src/CppUTest/TestFailure.cpp:269 (discriminator 2)

    SimpleString::padStringsToSameLength(aDecimal, eDecimal, ' ');

    SimpleString actualReported = aDecimal + " " + BracketsFormattedHexStringFrom(actual);
    SimpleString expectedReported = eDecimal + " " + BracketsFormattedHexStringFrom(expected);
    message_ += createButWasString(expectedReported, actualReported);
    b49a:	48 89 ef             	mov    %rbp,%rdi
    b49d:	4c 89 ed             	mov    %r13,%rbp
    b4a0:	e8 2b 71 00 00       	callq  125d0 <_ZN12SimpleStringD1Ev>
/home/rodne/dev/cProjects/cpputest/cpputest_build/../src/CppUTest/TestFailure.cpp:268
    SimpleString expectedReported = eDecimal + " " + BracketsFormattedHexStringFrom(expected);
    b4a5:	48 8b 7c 24 08       	mov    0x8(%rsp),%rdi
    b4aa:	e8 21 71 00 00       	callq  125d0 <_ZN12SimpleStringD1Ev>
/home/rodne/dev/cProjects/cpputest/cpputest_build/../src/CppUTest/TestFailure.cpp:267
    SimpleString actualReported = aDecimal + " " + BracketsFormattedHexStringFrom(actual);
    b4af:	48 8b 7c 24 10       	mov    0x10(%rsp),%rdi
    b4b4:	e8 17 71 00 00       	callq  125d0 <_ZN12SimpleStringD1Ev>
/home/rodne/dev/cProjects/cpputest/cpputest_build/../src/CppUTest/TestFailure.cpp:263
    SimpleString eDecimal = StringFrom(expected);
    b4b9:	48 89 df             	mov    %rbx,%rdi
    b4bc:	e8 0f 71 00 00       	callq  125d0 <_ZN12SimpleStringD1Ev>
/home/rodne/dev/cProjects/cpputest/cpputest_build/../src/CppUTest/TestFailure.cpp:262
    SimpleString aDecimal = StringFrom(actual);
    b4c1:	4c 89 ff             	mov    %r15,%rdi
    b4c4:	e8 07 71 00 00       	callq  125d0 <_ZN12SimpleStringD1Ev>
/home/rodne/dev/cProjects/cpputest/cpputest_build/../src/CppUTest/TestFailure.cpp:258
: TestFailure(test, fileName, lineNumber)
    b4c9:	4c 89 e7             	mov    %r12,%rdi
    b4cc:	e8 0f a3 00 00       	callq  157e0 <_ZN11TestFailureD1Ev>
    b4d1:	48 89 ef             	mov    %rbp,%rdi
    b4d4:	e8 e7 ef ff ff       	callq  a4c0 <_Unwind_Resume@plt>
    b4d9:	4c 89 f7             	mov    %r14,%rdi
    b4dc:	e8 ef 70 00 00       	callq  125d0 <_ZN12SimpleStringD1Ev>
    b4e1:	4c 8b 74 24 08       	mov    0x8(%rsp),%r14
    b4e6:	4c 89 ef             	mov    %r13,%rdi
    b4e9:	e8 e2 70 00 00       	callq  125d0 <_ZN12SimpleStringD1Ev>
    b4ee:	48 89 ef             	mov    %rbp,%rdi
    b4f1:	4c 89 f5             	mov    %r14,%rbp
    b4f4:	e8 d7 70 00 00       	callq  125d0 <_ZN12SimpleStringD1Ev>
    b4f9:	eb b4                	jmp    b4af <_ZN21LongLongsEqualFailureC2EP10UtestShellPKcmxxRK12SimpleString.cold+0x15>
    b4fb:	4c 89 f7             	mov    %r14,%rdi
    b4fe:	e8 cd 70 00 00       	callq  125d0 <_ZN12SimpleStringD1Ev>
    b503:	4c 8b 74 24 08       	mov    0x8(%rsp),%r14
    b508:	4c 89 ef             	mov    %r13,%rdi
    b50b:	e8 c0 70 00 00       	callq  125d0 <_ZN12SimpleStringD1Ev>
    b510:	48 89 ef             	mov    %rbp,%rdi
    b513:	4c 89 f5             	mov    %r14,%rbp
    b516:	e8 b5 70 00 00       	callq  125d0 <_ZN12SimpleStringD1Ev>
    b51b:	eb 9c                	jmp    b4b9 <_ZN21LongLongsEqualFailureC2EP10UtestShellPKcmxxRK12SimpleString.cold+0x1f>
/home/rodne/dev/cProjects/cpputest/cpputest_build/../src/CppUTest/TestFailure.cpp:260 (discriminator 2)
    message_ = createUserText(text);
    b51d:	48 89 ef             	mov    %rbp,%rdi
    b520:	48 89 dd             	mov    %rbx,%rbp
    b523:	e8 a8 70 00 00       	callq  125d0 <_ZN12SimpleStringD1Ev>
    b528:	eb 9f                	jmp    b4c9 <_ZN21LongLongsEqualFailureC2EP10UtestShellPKcmxxRK12SimpleString.cold+0x2f>

000000000000b52a <_ZN29UnsignedLongLongsEqualFailureC2EP10UtestShellPKcmyyRK12SimpleString.cold>:
_ZN29UnsignedLongLongsEqualFailureC2EP10UtestShellPKcmyyRK12SimpleString():
/home/rodne/dev/cProjects/cpputest/cpputest_build/../src/CppUTest/TestFailure.cpp:284 (discriminator 2)

    SimpleString::padStringsToSameLength(aDecimal, eDecimal, ' ');

    SimpleString actualReported = aDecimal + " " + BracketsFormattedHexStringFrom(actual);
    SimpleString expectedReported = eDecimal + " " + BracketsFormattedHexStringFrom(expected);
    message_ += createButWasString(expectedReported, actualReported);
    b52a:	48 89 ef             	mov    %rbp,%rdi
    b52d:	4c 89 ed             	mov    %r13,%rbp
    b530:	e8 9b 70 00 00       	callq  125d0 <_ZN12SimpleStringD1Ev>
/home/rodne/dev/cProjects/cpputest/cpputest_build/../src/CppUTest/TestFailure.cpp:283
    SimpleString expectedReported = eDecimal + " " + BracketsFormattedHexStringFrom(expected);
    b535:	48 8b 7c 24 08       	mov    0x8(%rsp),%rdi
    b53a:	e8 91 70 00 00       	callq  125d0 <_ZN12SimpleStringD1Ev>
/home/rodne/dev/cProjects/cpputest/cpputest_build/../src/CppUTest/TestFailure.cpp:282
    SimpleString actualReported = aDecimal + " " + BracketsFormattedHexStringFrom(actual);
    b53f:	48 8b 7c 24 10       	mov    0x10(%rsp),%rdi
    b544:	e8 87 70 00 00       	callq  125d0 <_ZN12SimpleStringD1Ev>
/home/rodne/dev/cProjects/cpputest/cpputest_build/../src/CppUTest/TestFailure.cpp:278
    SimpleString eDecimal = StringFrom(expected);
    b549:	48 89 df             	mov    %rbx,%rdi
    b54c:	e8 7f 70 00 00       	callq  125d0 <_ZN12SimpleStringD1Ev>
/home/rodne/dev/cProjects/cpputest/cpputest_build/../src/CppUTest/TestFailure.cpp:277
    SimpleString aDecimal = StringFrom(actual);
    b551:	4c 89 ff             	mov    %r15,%rdi
    b554:	e8 77 70 00 00       	callq  125d0 <_ZN12SimpleStringD1Ev>
/home/rodne/dev/cProjects/cpputest/cpputest_build/../src/CppUTest/TestFailure.cpp:273
: TestFailure(test, fileName, lineNumber)
    b559:	4c 89 e7             	mov    %r12,%rdi
    b55c:	e8 7f a2 00 00       	callq  157e0 <_ZN11TestFailureD1Ev>
    b561:	48 89 ef             	mov    %rbp,%rdi
    b564:	e8 57 ef ff ff       	callq  a4c0 <_Unwind_Resume@plt>
    b569:	4c 89 f7             	mov    %r14,%rdi
    b56c:	e8 5f 70 00 00       	callq  125d0 <_ZN12SimpleStringD1Ev>
    b571:	4c 8b 74 24 08       	mov    0x8(%rsp),%r14
    b576:	4c 89 ef             	mov    %r13,%rdi
    b579:	e8 52 70 00 00       	callq  125d0 <_ZN12SimpleStringD1Ev>
    b57e:	48 89 ef             	mov    %rbp,%rdi
    b581:	4c 89 f5             	mov    %r14,%rbp
    b584:	e8 47 70 00 00       	callq  125d0 <_ZN12SimpleStringD1Ev>
    b589:	eb b4                	jmp    b53f <_ZN29UnsignedLongLongsEqualFailureC2EP10UtestShellPKcmyyRK12SimpleString.cold+0x15>
    b58b:	4c 89 f7             	mov    %r14,%rdi
    b58e:	e8 3d 70 00 00       	callq  125d0 <_ZN12SimpleStringD1Ev>
    b593:	4c 8b 74 24 08       	mov    0x8(%rsp),%r14
    b598:	4c 89 ef             	mov    %r13,%rdi
    b59b:	e8 30 70 00 00       	callq  125d0 <_ZN12SimpleStringD1Ev>
    b5a0:	48 89 ef             	mov    %rbp,%rdi
    b5a3:	4c 89 f5             	mov    %r14,%rbp
    b5a6:	e8 25 70 00 00       	callq  125d0 <_ZN12SimpleStringD1Ev>
    b5ab:	eb 9c                	jmp    b549 <_ZN29UnsignedLongLongsEqualFailureC2EP10UtestShellPKcmyyRK12SimpleString.cold+0x1f>
/home/rodne/dev/cProjects/cpputest/cpputest_build/../src/CppUTest/TestFailure.cpp:275 (discriminator 2)
    message_ = createUserText(text);
    b5ad:	48 89 ef             	mov    %rbp,%rdi
    b5b0:	48 89 dd             	mov    %rbx,%rbp
    b5b3:	e8 18 70 00 00       	callq  125d0 <_ZN12SimpleStringD1Ev>
    b5b8:	eb 9f                	jmp    b559 <_ZN29UnsignedLongLongsEqualFailureC2EP10UtestShellPKcmyyRK12SimpleString.cold+0x2f>

000000000000b5ba <_ZN23SignedBytesEqualFailureC2EP10UtestShellPKcmaaRK12SimpleString.cold>:
_ZN23SignedBytesEqualFailureC2EP10UtestShellPKcmaaRK12SimpleString():
/home/rodne/dev/cProjects/cpputest/cpputest_build/../src/CppUTest/TestFailure.cpp:299 (discriminator 2)

    SimpleString::padStringsToSameLength(aDecimal, eDecimal, ' ');

    SimpleString actualReported = aDecimal + " " + BracketsFormattedHexStringFrom(actual);
    SimpleString expectedReported = eDecimal + " " + BracketsFormattedHexStringFrom(expected);
    message_ += createButWasString(expectedReported, actualReported);
    b5ba:	48 89 ef             	mov    %rbp,%rdi
    b5bd:	4c 89 ed             	mov    %r13,%rbp
    b5c0:	e8 0b 70 00 00       	callq  125d0 <_ZN12SimpleStringD1Ev>
/home/rodne/dev/cProjects/cpputest/cpputest_build/../src/CppUTest/TestFailure.cpp:298
    SimpleString expectedReported = eDecimal + " " + BracketsFormattedHexStringFrom(expected);
    b5c5:	48 8b 7c 24 08       	mov    0x8(%rsp),%rdi
    b5ca:	e8 01 70 00 00       	callq  125d0 <_ZN12SimpleStringD1Ev>
/home/rodne/dev/cProjects/cpputest/cpputest_build/../src/CppUTest/TestFailure.cpp:297
    SimpleString actualReported = aDecimal + " " + BracketsFormattedHexStringFrom(actual);
    b5cf:	48 8b 7c 24 10       	mov    0x10(%rsp),%rdi
    b5d4:	e8 f7 6f 00 00       	callq  125d0 <_ZN12SimpleStringD1Ev>
/home/rodne/dev/cProjects/cpputest/cpputest_build/../src/CppUTest/TestFailure.cpp:293
    SimpleString eDecimal = StringFrom((int)expected);
    b5d9:	48 89 df             	mov    %rbx,%rdi
    b5dc:	e8 ef 6f 00 00       	callq  125d0 <_ZN12SimpleStringD1Ev>
/home/rodne/dev/cProjects/cpputest/cpputest_build/../src/CppUTest/TestFailure.cpp:292
    SimpleString aDecimal = StringFrom((int)actual);
    b5e1:	4c 89 ff             	mov    %r15,%rdi
    b5e4:	e8 e7 6f 00 00       	callq  125d0 <_ZN12SimpleStringD1Ev>
/home/rodne/dev/cProjects/cpputest/cpputest_build/../src/CppUTest/TestFailure.cpp:288
: TestFailure(test, fileName, lineNumber)
    b5e9:	4c 89 e7             	mov    %r12,%rdi
    b5ec:	e8 ef a1 00 00       	callq  157e0 <_ZN11TestFailureD1Ev>
    b5f1:	48 89 ef             	mov    %rbp,%rdi
    b5f4:	e8 c7 ee ff ff       	callq  a4c0 <_Unwind_Resume@plt>
    b5f9:	4c 89 f7             	mov    %r14,%rdi
    b5fc:	e8 cf 6f 00 00       	callq  125d0 <_ZN12SimpleStringD1Ev>
    b601:	4c 8b 74 24 08       	mov    0x8(%rsp),%r14
    b606:	4c 89 ef             	mov    %r13,%rdi
    b609:	e8 c2 6f 00 00       	callq  125d0 <_ZN12SimpleStringD1Ev>
    b60e:	48 89 ef             	mov    %rbp,%rdi
    b611:	4c 89 f5             	mov    %r14,%rbp
    b614:	e8 b7 6f 00 00       	callq  125d0 <_ZN12SimpleStringD1Ev>
    b619:	eb b4                	jmp    b5cf <_ZN23SignedBytesEqualFailureC2EP10UtestShellPKcmaaRK12SimpleString.cold+0x15>
    b61b:	4c 89 f7             	mov    %r14,%rdi
    b61e:	e8 ad 6f 00 00       	callq  125d0 <_ZN12SimpleStringD1Ev>
    b623:	4c 8b 74 24 08       	mov    0x8(%rsp),%r14
    b628:	4c 89 ef             	mov    %r13,%rdi
    b62b:	e8 a0 6f 00 00       	callq  125d0 <_ZN12SimpleStringD1Ev>
    b630:	48 89 ef             	mov    %rbp,%rdi
    b633:	4c 89 f5             	mov    %r14,%rbp
    b636:	e8 95 6f 00 00       	callq  125d0 <_ZN12SimpleStringD1Ev>
    b63b:	eb 9c                	jmp    b5d9 <_ZN23SignedBytesEqualFailureC2EP10UtestShellPKcmaaRK12SimpleString.cold+0x1f>
/home/rodne/dev/cProjects/cpputest/cpputest_build/../src/CppUTest/TestFailure.cpp:290 (discriminator 2)
    message_ = createUserText(text);
    b63d:	48 89 ef             	mov    %rbp,%rdi
    b640:	48 89 dd             	mov    %rbx,%rbp
    b643:	e8 88 6f 00 00       	callq  125d0 <_ZN12SimpleStringD1Ev>
    b648:	eb 9f                	jmp    b5e9 <_ZN23SignedBytesEqualFailureC2EP10UtestShellPKcmaaRK12SimpleString.cold+0x2f>

000000000000b64a <_ZN18StringEqualFailureC2EP10UtestShellPKcmS3_S3_RK12SimpleString.cold>:
_ZN18StringEqualFailureC2EP10UtestShellPKcmS3_S3_RK12SimpleString():
/home/rodne/dev/cProjects/cpputest/cpputest_build/../src/CppUTest/TestFailure.cpp:319 (discriminator 2)
        for (failStart = 0; actual[failStart] == expected[failStart]; failStart++)
            ;
        size_t failStartPrintable;
        for (failStartPrintable = 0; printableActual.at(failStartPrintable) == printableExpected.at(failStartPrintable); failStartPrintable++)
            ;
        message_ += createDifferenceAtPosString(printableActual, failStartPrintable, failStart);
    b64a:	4c 89 ff             	mov    %r15,%rdi
    b64d:	e8 7e 6f 00 00       	callq  125d0 <_ZN12SimpleStringD1Ev>
/home/rodne/dev/cProjects/cpputest/cpputest_build/../src/CppUTest/TestFailure.cpp:308
    SimpleString printableActual = PrintableStringFromOrNull(actual);
    b652:	4c 89 ef             	mov    %r13,%rdi
    b655:	e8 76 6f 00 00       	callq  125d0 <_ZN12SimpleStringD1Ev>
/home/rodne/dev/cProjects/cpputest/cpputest_build/../src/CppUTest/TestFailure.cpp:307
    SimpleString printableExpected = PrintableStringFromOrNull(expected);
    b65a:	4c 89 f7             	mov    %r14,%rdi
    b65d:	48 89 dd             	mov    %rbx,%rbp
    b660:	e8 6b 6f 00 00       	callq  125d0 <_ZN12SimpleStringD1Ev>
/home/rodne/dev/cProjects/cpputest/cpputest_build/../src/CppUTest/TestFailure.cpp:303
: TestFailure(test, fileName, lineNumber)
    b665:	48 8b 7c 24 08       	mov    0x8(%rsp),%rdi
    b66a:	e8 71 a1 00 00       	callq  157e0 <_ZN11TestFailureD1Ev>
    b66f:	48 89 ef             	mov    %rbp,%rdi
    b672:	e8 49 ee ff ff       	callq  a4c0 <_Unwind_Resume@plt>
/home/rodne/dev/cProjects/cpputest/cpputest_build/../src/CppUTest/TestFailure.cpp:310 (discriminator 2)
    message_ += createButWasString(printableExpected, printableActual);
    b677:	4c 89 ff             	mov    %r15,%rdi
    b67a:	e8 51 6f 00 00       	callq  125d0 <_ZN12SimpleStringD1Ev>
    b67f:	eb d1                	jmp    b652 <_ZN18StringEqualFailureC2EP10UtestShellPKcmS3_S3_RK12SimpleString.cold+0x8>
/home/rodne/dev/cProjects/cpputest/cpputest_build/../src/CppUTest/TestFailure.cpp:305 (discriminator 2)
    message_ = createUserText(text);
    b681:	4c 89 ff             	mov    %r15,%rdi
    b684:	e8 47 6f 00 00       	callq  125d0 <_ZN12SimpleStringD1Ev>
    b689:	eb da                	jmp    b665 <_ZN18StringEqualFailureC2EP10UtestShellPKcmS3_S3_RK12SimpleString.cold+0x1b>
_ZN18StringEqualFailureC2EP10UtestShellPKcmS3_S3_RK12SimpleString.cold():
/home/rodne/dev/cProjects/cpputest/cpputest_build/../src/CppUTest/TestFailure.cpp:305 (discriminator 2)
    b68b:	90                   	nop

000000000000b68c <_ZN24StringEqualNoCaseFailureC2EP10UtestShellPKcmS3_S3_RK12SimpleString.cold>:
_ZN24StringEqualNoCaseFailureC2EP10UtestShellPKcmS3_S3_RK12SimpleString():
/home/rodne/dev/cProjects/cpputest/cpputest_build/../src/CppUTest/TestFailure.cpp:342 (discriminator 2)
        size_t failStartPrintable;
        for (failStartPrintable = 0;
             SimpleString::ToLower(printableActual.at(failStartPrintable)) == SimpleString::ToLower(printableExpected.at(failStartPrintable));
             failStartPrintable++)
            ;
        message_ += createDifferenceAtPosString(printableActual, failStartPrintable, failStart);
    b68c:	4c 89 ff             	mov    %r15,%rdi
    b68f:	e8 3c 6f 00 00       	callq  125d0 <_ZN12SimpleStringD1Ev>
/home/rodne/dev/cProjects/cpputest/cpputest_build/../src/CppUTest/TestFailure.cpp:329
    SimpleString printableActual = PrintableStringFromOrNull(actual);
    b694:	4c 89 ef             	mov    %r13,%rdi
    b697:	e8 34 6f 00 00       	callq  125d0 <_ZN12SimpleStringD1Ev>
/home/rodne/dev/cProjects/cpputest/cpputest_build/../src/CppUTest/TestFailure.cpp:328
    SimpleString printableExpected = PrintableStringFromOrNull(expected);
    b69c:	4c 89 f7             	mov    %r14,%rdi
    b69f:	48 89 dd             	mov    %rbx,%rbp
    b6a2:	e8 29 6f 00 00       	callq  125d0 <_ZN12SimpleStringD1Ev>
/home/rodne/dev/cProjects/cpputest/cpputest_build/../src/CppUTest/TestFailure.cpp:324
: TestFailure(test, fileName, lineNumber)
    b6a7:	48 8b 7c 24 10       	mov    0x10(%rsp),%rdi
    b6ac:	e8 2f a1 00 00       	callq  157e0 <_ZN11TestFailureD1Ev>
    b6b1:	48 89 ef             	mov    %rbp,%rdi
    b6b4:	e8 07 ee ff ff       	callq  a4c0 <_Unwind_Resume@plt>
/home/rodne/dev/cProjects/cpputest/cpputest_build/../src/CppUTest/TestFailure.cpp:331 (discriminator 2)
    message_ += createButWasString(printableExpected, printableActual);
    b6b9:	4c 89 ff             	mov    %r15,%rdi
    b6bc:	e8 0f 6f 00 00       	callq  125d0 <_ZN12SimpleStringD1Ev>
    b6c1:	eb d1                	jmp    b694 <_ZN24StringEqualNoCaseFailureC2EP10UtestShellPKcmS3_S3_RK12SimpleString.cold+0x8>
/home/rodne/dev/cProjects/cpputest/cpputest_build/../src/CppUTest/TestFailure.cpp:326 (discriminator 2)
    message_ = createUserText(text);
    b6c3:	4c 89 ff             	mov    %r15,%rdi
    b6c6:	e8 05 6f 00 00       	callq  125d0 <_ZN12SimpleStringD1Ev>
    b6cb:	eb da                	jmp    b6a7 <_ZN24StringEqualNoCaseFailureC2EP10UtestShellPKcmS3_S3_RK12SimpleString.cold+0x1b>
_ZN24StringEqualNoCaseFailureC2EP10UtestShellPKcmS3_S3_RK12SimpleString.cold():
/home/rodne/dev/cProjects/cpputest/cpputest_build/../src/CppUTest/TestFailure.cpp:326 (discriminator 2)
    b6cd:	90                   	nop

000000000000b6ce <_ZN18BinaryEqualFailureC2EP10UtestShellPKcmPKhS5_mRK12SimpleString.cold>:
_ZN18BinaryEqualFailureC2EP10UtestShellPKcmPKhS5_mRK12SimpleString():
/home/rodne/dev/cProjects/cpputest/cpputest_build/../src/CppUTest/TestFailure.cpp:354 (discriminator 4)
{
    message_ = createUserText(text);

    SimpleString actualHex = StringFromBinaryOrNull(actual, size);

	message_ += createButWasString(StringFromBinaryOrNull(expected, size), actualHex);
    b6ce:	4c 89 ff             	mov    %r15,%rdi
    b6d1:	e8 fa 6e 00 00       	callq  125d0 <_ZN12SimpleStringD1Ev>
/home/rodne/dev/cProjects/cpputest/cpputest_build/../src/CppUTest/TestFailure.cpp:354 (discriminator 2)
    b6d6:	4c 89 e7             	mov    %r12,%rdi
    b6d9:	e8 f2 6e 00 00       	callq  125d0 <_ZN12SimpleStringD1Ev>
/home/rodne/dev/cProjects/cpputest/cpputest_build/../src/CppUTest/TestFailure.cpp:352
    SimpleString actualHex = StringFromBinaryOrNull(actual, size);
    b6de:	4c 89 f7             	mov    %r14,%rdi
    b6e1:	e8 ea 6e 00 00       	callq  125d0 <_ZN12SimpleStringD1Ev>
/home/rodne/dev/cProjects/cpputest/cpputest_build/../src/CppUTest/TestFailure.cpp:348
: TestFailure(test, fileName, lineNumber)
    b6e6:	4c 89 ef             	mov    %r13,%rdi
    b6e9:	e8 f2 a0 00 00       	callq  157e0 <_ZN11TestFailureD1Ev>
    b6ee:	48 89 ef             	mov    %rbp,%rdi
    b6f1:	e8 ca ed ff ff       	callq  a4c0 <_Unwind_Resume@plt>
/home/rodne/dev/cProjects/cpputest/cpputest_build/../src/CppUTest/TestFailure.cpp:360 (discriminator 2)
	if ((expected) && (actual))
	{
		size_t failStart;
		for (failStart = 0; actual[failStart] == expected[failStart]; failStart++)
			;
		message_ += createDifferenceAtPosString(actualHex, (failStart * 3 + 1), failStart);
    b6f6:	4c 89 e7             	mov    %r12,%rdi
    b6f9:	e8 d2 6e 00 00       	callq  125d0 <_ZN12SimpleStringD1Ev>
    b6fe:	eb de                	jmp    b6de <_ZN18BinaryEqualFailureC2EP10UtestShellPKcmPKhS5_mRK12SimpleString.cold+0x10>
/home/rodne/dev/cProjects/cpputest/cpputest_build/../src/CppUTest/TestFailure.cpp:350 (discriminator 2)
    message_ = createUserText(text);
    b700:	4c 89 e7             	mov    %r12,%rdi
    b703:	e8 c8 6e 00 00       	callq  125d0 <_ZN12SimpleStringD1Ev>
    b708:	eb dc                	jmp    b6e6 <_ZN18BinaryEqualFailureC2EP10UtestShellPKcmPKhS5_mRK12SimpleString.cold+0x18>

000000000000b70a <_ZN16BitsEqualFailureC2EP10UtestShellPKcmmmmmRK12SimpleString.cold>:
_ZN16BitsEqualFailureC2EP10UtestShellPKcmmmmmRK12SimpleString():
/home/rodne/dev/cProjects/cpputest/cpputest_build/../src/CppUTest/TestFailure.cpp:370 (discriminator 6)
                                   unsigned long mask, size_t byteCount, const SimpleString& text)
: TestFailure(test, fileName, lineNumber)
{
    message_ = createUserText(text);

    message_ += createButWasString(StringFromMaskedBits(expected, mask, byteCount), StringFromMaskedBits(actual, mask, byteCount));
    b70a:	4c 89 f7             	mov    %r14,%rdi
    b70d:	e8 be 6e 00 00       	callq  125d0 <_ZN12SimpleStringD1Ev>
/home/rodne/dev/cProjects/cpputest/cpputest_build/../src/CppUTest/TestFailure.cpp:370 (discriminator 4)
    b712:	4c 89 ef             	mov    %r13,%rdi
    b715:	e8 b6 6e 00 00       	callq  125d0 <_ZN12SimpleStringD1Ev>
/home/rodne/dev/cProjects/cpputest/cpputest_build/../src/CppUTest/TestFailure.cpp:370 (discriminator 2)
    b71a:	4c 89 e7             	mov    %r12,%rdi
    b71d:	e8 ae 6e 00 00       	callq  125d0 <_ZN12SimpleStringD1Ev>
/home/rodne/dev/cProjects/cpputest/cpputest_build/../src/CppUTest/TestFailure.cpp:366
: TestFailure(test, fileName, lineNumber)
    b722:	48 89 ef             	mov    %rbp,%rdi
    b725:	e8 b6 a0 00 00       	callq  157e0 <_ZN11TestFailureD1Ev>
    b72a:	48 89 df             	mov    %rbx,%rdi
    b72d:	e8 8e ed ff ff       	callq  a4c0 <_Unwind_Resume@plt>
/home/rodne/dev/cProjects/cpputest/cpputest_build/../src/CppUTest/TestFailure.cpp:368 (discriminator 2)
    message_ = createUserText(text);
    b732:	4c 89 e7             	mov    %r12,%rdi
    b735:	e8 96 6e 00 00       	callq  125d0 <_ZN12SimpleStringD1Ev>
    b73a:	eb e6                	jmp    b722 <_ZN16BitsEqualFailureC2EP10UtestShellPKcmmmmmRK12SimpleString.cold+0x18>

000000000000b73c <_ZN25FeatureUnsupportedFailureC2EP10UtestShellPKcmRK12SimpleStringS6_.cold>:
_ZN25FeatureUnsupportedFailureC2EP10UtestShellPKcmRK12SimpleStringS6_():
/home/rodne/dev/cProjects/cpputest/cpputest_build/../src/CppUTest/TestFailure.cpp:379 (discriminator 3)
                                                     const SimpleString& featureName, const SimpleString& text)
: TestFailure(test, fileName, lineNumber)
{
    message_ = createUserText(text);

    message_ += StringFromFormat("The feature \"%s\" is not supported in this environment or with the feature set selected when building the library.", featureName.asCharString());
    b73c:	48 89 ef             	mov    %rbp,%rdi
    b73f:	e8 8c 6e 00 00       	callq  125d0 <_ZN12SimpleStringD1Ev>
/home/rodne/dev/cProjects/cpputest/cpputest_build/../src/CppUTest/TestFailure.cpp:375
: TestFailure(test, fileName, lineNumber)
    b744:	4c 89 e7             	mov    %r12,%rdi
    b747:	e8 94 a0 00 00       	callq  157e0 <_ZN11TestFailureD1Ev>
    b74c:	4c 89 ef             	mov    %r13,%rdi
    b74f:	e8 6c ed ff ff       	callq  a4c0 <_Unwind_Resume@plt>
/home/rodne/dev/cProjects/cpputest/cpputest_build/../src/CppUTest/TestFailure.cpp:377 (discriminator 2)
    message_ = createUserText(text);
    b754:	48 89 ef             	mov    %rbp,%rdi
    b757:	e8 74 6e 00 00       	callq  125d0 <_ZN12SimpleStringD1Ev>
    b75c:	eb e6                	jmp    b744 <_ZN25FeatureUnsupportedFailureC2EP10UtestShellPKcmRK12SimpleStringS6_.cold+0x8>

000000000000b75e <_ZN23FailableMemoryAllocator28checkAllFailedAllocsWereDoneEv.cold>:
_ZN23FailableMemoryAllocator28checkAllFailedAllocsWereDoneEv():
/home/rodne/dev/cProjects/cpputest/cpputest_build/../src/CppUTest/TestMemoryAllocator.cpp:380 (discriminator 2)
        UtestShell* currentTest = UtestShell::getCurrent();
        SimpleString failText;
        if (head_->file_)
            failText = StringFromFormat("Expected failing alloc at %s:%d was never done", head_->file_, (int) head_->line_);
        else
            failText = StringFromFormat("Expected allocation number %d was never done", (int) head_->allocNumberToFail_);
    b75e:	4c 89 e7             	mov    %r12,%rdi
    b761:	e8 6a 6e 00 00       	callq  125d0 <_ZN12SimpleStringD1Ev>
/home/rodne/dev/cProjects/cpputest/cpputest_build/../src/CppUTest/TestMemoryAllocator.cpp:376
        SimpleString failText;
    b766:	4c 89 ef             	mov    %r13,%rdi
    b769:	e8 62 6e 00 00       	callq  125d0 <_ZN12SimpleStringD1Ev>
    b76e:	48 89 ef             	mov    %rbp,%rdi
    b771:	e8 4a ed ff ff       	callq  a4c0 <_Unwind_Resume@plt>
_ZN11FailFailureD4Ev():
/home/rodne/dev/cProjects/cpputest/cpputest_build/../include/CppUTest/TestFailure.h:119 (discriminator 7)
{
public:
    CheckFailure(UtestShell* test, const char* fileName, size_t lineNumber, const SimpleString& checkString, const SimpleString& conditionString, const SimpleString& textString = "");
};

class FailFailure : public TestFailure
    b776:	48 8d 05 0b ce 02 00 	lea    0x2ce0b(%rip),%rax        # 38588 <_ZTV11FailFailure+0x10>
    b77d:	4c 89 e7             	mov    %r12,%rdi
    b780:	48 89 44 24 20       	mov    %rax,0x20(%rsp)
    b785:	e8 56 a0 00 00       	callq  157e0 <_ZN11TestFailureD1Ev>
_ZN23FailableMemoryAllocator28checkAllFailedAllocsWereDoneEv():
/home/rodne/dev/cProjects/cpputest/cpputest_build/../src/CppUTest/TestMemoryAllocator.cpp:382 (discriminator 5)

        currentTest->failWith(FailFailure(currentTest, currentTest->getName().asCharString(), currentTest->getLineNumber(), failText));
    b78a:	4c 89 f7             	mov    %r14,%rdi
    b78d:	e8 3e 6e 00 00       	callq  125d0 <_ZN12SimpleStringD1Ev>
    b792:	eb d2                	jmp    b766 <_ZN23FailableMemoryAllocator28checkAllFailedAllocsWereDoneEv.cold+0x8>
/home/rodne/dev/cProjects/cpputest/cpputest_build/../src/CppUTest/TestMemoryAllocator.cpp:378 (discriminator 2)
            failText = StringFromFormat("Expected failing alloc at %s:%d was never done", head_->file_, (int) head_->line_);
    b794:	4c 89 e7             	mov    %r12,%rdi
    b797:	e8 34 6e 00 00       	callq  125d0 <_ZN12SimpleStringD1Ev>
    b79c:	eb c8                	jmp    b766 <_ZN23FailableMemoryAllocator28checkAllFailedAllocsWereDoneEv.cold+0x8>

000000000000b79e <_ZNK16MemoryAccountant6reportEv.cold>:
_ZNK16MemoryAccountant6reportEv():
/home/rodne/dev/cProjects/cpputest/cpputest_build/../src/CppUTest/TestMemoryAllocator.cpp:614 (discriminator 2)
    SimpleString accountantReport = reportTitle() + reportHeader();

    for (MemoryAccountantAllocationNode* node = head_; node; node = node->next_)
        accountantReport += StringFromFormat(MEMORY_ACCOUNTANT_ROW_FORMAT, stringSize(node->size_).asCharString(), (int) node->allocations_, (int) node->deallocations_, (int) node->maxAllocations_);

    return accountantReport + reportFooter();
    b79e:	48 89 ef             	mov    %rbp,%rdi
    b7a1:	48 89 dd             	mov    %rbx,%rbp
    b7a4:	e8 27 6e 00 00       	callq  125d0 <_ZN12SimpleStringD1Ev>
/home/rodne/dev/cProjects/cpputest/cpputest_build/../src/CppUTest/TestMemoryAllocator.cpp:609
    SimpleString accountantReport = reportTitle() + reportHeader();
    b7a9:	4c 89 ff             	mov    %r15,%rdi
    b7ac:	e8 1f 6e 00 00       	callq  125d0 <_ZN12SimpleStringD1Ev>
    b7b1:	48 89 ef             	mov    %rbp,%rdi
    b7b4:	e8 07 ed ff ff       	callq  a4c0 <_Unwind_Resume@plt>
/home/rodne/dev/cProjects/cpputest/cpputest_build/../src/CppUTest/TestMemoryAllocator.cpp:612 (discriminator 6)
        accountantReport += StringFromFormat(MEMORY_ACCOUNTANT_ROW_FORMAT, stringSize(node->size_).asCharString(), (int) node->allocations_, (int) node->deallocations_, (int) node->maxAllocations_);
    b7b9:	48 89 ef             	mov    %rbp,%rdi
    b7bc:	48 89 dd             	mov    %rbx,%rbp
    b7bf:	e8 0c 6e 00 00       	callq  125d0 <_ZN12SimpleStringD1Ev>
/home/rodne/dev/cProjects/cpputest/cpputest_build/../src/CppUTest/TestMemoryAllocator.cpp:612 (discriminator 4)
    b7c4:	4c 89 e7             	mov    %r12,%rdi
    b7c7:	e8 04 6e 00 00       	callq  125d0 <_ZN12SimpleStringD1Ev>
    b7cc:	eb db                	jmp    b7a9 <_ZNK16MemoryAccountant6reportEv.cold+0xb>
    b7ce:	4c 89 e7             	mov    %r12,%rdi
    b7d1:	49 89 dc             	mov    %rbx,%r12
    b7d4:	e8 f7 6d 00 00       	callq  125d0 <_ZN12SimpleStringD1Ev>
    b7d9:	48 89 ef             	mov    %rbp,%rdi
    b7dc:	e8 ef 6d 00 00       	callq  125d0 <_ZN12SimpleStringD1Ev>
    b7e1:	4c 89 e7             	mov    %r12,%rdi
    b7e4:	e8 d7 ec ff ff       	callq  a4c0 <_Unwind_Resume@plt>
_ZNK16MemoryAccountant6reportEv.cold():
    b7e9:	90                   	nop

000000000000b7ea <_ZN10TestOutput5printEl.cold>:
_ZN10TestOutput5printEl():
/home/rodne/dev/cProjects/cpputest/cpputest_build/../src/CppUTest/TestOutput.cpp:72 (discriminator 3)
    printBuffer(str);
}

void TestOutput::print(long n)
{
    print(StringFrom(n).asCharString());
    b7ea:	4c 89 e7             	mov    %r12,%rdi
    b7ed:	e8 de 6d 00 00       	callq  125d0 <_ZN12SimpleStringD1Ev>
    b7f2:	48 89 ef             	mov    %rbp,%rdi
    b7f5:	e8 c6 ec ff ff       	callq  a4c0 <_Unwind_Resume@plt>

000000000000b7fa <_ZN10TestOutput23printCurrentTestStartedERK10UtestShell.cold>:
_ZN10TestOutput23printCurrentTestStartedERK10UtestShell():
/home/rodne/dev/cProjects/cpputest/cpputest_build/../src/CppUTest/TestOutput.cpp:99 (discriminator 4)
    return p;
}

void TestOutput::printCurrentTestStarted(const UtestShell& test)
{
    if (verbose_ > level_quiet) print(test.getFormattedName().asCharString());
    b7fa:	4c 89 ef             	mov    %r13,%rdi
    b7fd:	e8 ce 6d 00 00       	callq  125d0 <_ZN12SimpleStringD1Ev>
    b802:	48 89 ef             	mov    %rbp,%rdi
    b805:	e8 b6 ec ff ff       	callq  a4c0 <_Unwind_Resume@plt>

000000000000b80a <_ZN10TestOutput5printEm.cold>:
_ZN10TestOutput5printEm():
/home/rodne/dev/cProjects/cpputest/cpputest_build/../src/CppUTest/TestOutput.cpp:77 (discriminator 3)
    print(StringFrom(n).asCharString());
    b80a:	4c 89 e7             	mov    %r12,%rdi
    b80d:	e8 be 6d 00 00       	callq  125d0 <_ZN12SimpleStringD1Ev>
    b812:	48 89 ef             	mov    %rbp,%rdi
    b815:	e8 a6 ec ff ff       	callq  a4c0 <_Unwind_Resume@plt>

000000000000b81a <_ZN10TestOutput11printDoubleEd.cold>:
_ZN10TestOutput11printDoubleEd():
/home/rodne/dev/cProjects/cpputest/cpputest_build/../src/CppUTest/TestOutput.cpp:82 (discriminator 3)
    print(StringFrom(d).asCharString());
    b81a:	4c 89 e7             	mov    %r12,%rdi
    b81d:	e8 ae 6d 00 00       	callq  125d0 <_ZN12SimpleStringD1Ev>
    b822:	48 89 ef             	mov    %rbp,%rdi
    b825:	e8 96 ec ff ff       	callq  a4c0 <_Unwind_Resume@plt>

000000000000b82a <_ZN10TestOutput52printErrorInFileOnLineFormattedForWorkingEnvironmentE12SimpleStringm.cold>:
_ZN10TestOutput52printErrorInFileOnLineFormattedForWorkingEnvironmentE12SimpleStringm():
/home/rodne/dev/cProjects/cpputest/cpputest_build/../src/CppUTest/TestOutput.cpp:245 (discriminator 1)
void TestOutput::printErrorInFileOnLineFormattedForWorkingEnvironment(SimpleString file, size_t lineNumber)
{
    if (TestOutput::getWorkingEnvironment() == TestOutput::visualStudio)
        printVisualStudioErrorInFileOnLine(file, lineNumber);
    else
        printEclipseErrorInFileOnLine(file, lineNumber);
    b82a:	4c 89 e7             	mov    %r12,%rdi
    b82d:	e8 9e 6d 00 00       	callq  125d0 <_ZN12SimpleStringD1Ev>
    b832:	48 89 ef             	mov    %rbp,%rdi
    b835:	e8 86 ec ff ff       	callq  a4c0 <_Unwind_Resume@plt>
/home/rodne/dev/cProjects/cpputest/cpputest_build/../src/CppUTest/TestOutput.cpp:243 (discriminator 1)
        printVisualStudioErrorInFileOnLine(file, lineNumber);
    b83a:	4c 89 e7             	mov    %r12,%rdi
    b83d:	e8 8e 6d 00 00       	callq  125d0 <_ZN12SimpleStringD1Ev>
    b842:	48 89 ef             	mov    %rbp,%rdi
    b845:	e8 76 ec ff ff       	callq  a4c0 <_Unwind_Resume@plt>

000000000000b84a <_ZN10TestOutput33printFileAndLineForTestAndFailureERK11TestFailure.cold>:
_ZN10TestOutput33printFileAndLineForTestAndFailureERK11TestFailure():
/home/rodne/dev/cProjects/cpputest/cpputest_build/../src/CppUTest/TestOutput.cpp:217 (discriminator 1)
    printErrorInFileOnLineFormattedForWorkingEnvironment(failure.getFileName(), failure.getFailureLineNumber());
    b84a:	4c 89 e7             	mov    %r12,%rdi
    b84d:	e8 7e 6d 00 00       	callq  125d0 <_ZN12SimpleStringD1Ev>
    b852:	48 89 ef             	mov    %rbp,%rdi
    b855:	e8 66 ec ff ff       	callq  a4c0 <_Unwind_Resume@plt>
/home/rodne/dev/cProjects/cpputest/cpputest_build/../src/CppUTest/TestOutput.cpp:216 (discriminator 1)
    printFailureInTest(failure.getTestName());
    b85a:	4c 89 e7             	mov    %r12,%rdi
    b85d:	e8 6e 6d 00 00       	callq  125d0 <_ZN12SimpleStringD1Ev>
    b862:	48 89 ef             	mov    %rbp,%rdi
    b865:	e8 56 ec ff ff       	callq  a4c0 <_Unwind_Resume@plt>
/home/rodne/dev/cProjects/cpputest/cpputest_build/../src/CppUTest/TestOutput.cpp:215 (discriminator 1)
    printErrorInFileOnLineFormattedForWorkingEnvironment(failure.getTestFileName(), failure.getTestLineNumber());
    b86a:	4c 89 e7             	mov    %r12,%rdi
    b86d:	e8 5e 6d 00 00       	callq  125d0 <_ZN12SimpleStringD1Ev>
    b872:	48 89 ef             	mov    %rbp,%rdi
    b875:	e8 46 ec ff ff       	callq  a4c0 <_Unwind_Resume@plt>

000000000000b87a <_ZN10TestOutput26printFileAndLineForFailureERK11TestFailure.cold>:
_ZN10TestOutput26printFileAndLineForFailureERK11TestFailure():
/home/rodne/dev/cProjects/cpputest/cpputest_build/../src/CppUTest/TestOutput.cpp:223 (discriminator 1)
    printFailureInTest(failure.getTestName());
    b87a:	4c 89 e7             	mov    %r12,%rdi
    b87d:	e8 4e 6d 00 00       	callq  125d0 <_ZN12SimpleStringD1Ev>
    b882:	48 89 ef             	mov    %rbp,%rdi
    b885:	e8 36 ec ff ff       	callq  a4c0 <_Unwind_Resume@plt>
/home/rodne/dev/cProjects/cpputest/cpputest_build/../src/CppUTest/TestOutput.cpp:222 (discriminator 1)
    printErrorInFileOnLineFormattedForWorkingEnvironment(failure.getFileName(), failure.getFailureLineNumber());
    b88a:	4c 89 e7             	mov    %r12,%rdi
    b88d:	e8 3e 6d 00 00       	callq  125d0 <_ZN12SimpleStringD1Ev>
    b892:	48 89 ef             	mov    %rbp,%rdi
    b895:	e8 26 ec ff ff       	callq  a4c0 <_Unwind_Resume@plt>

000000000000b89a <_ZN10TestOutput12printFailureERK11TestFailure.cold>:
_ZN10TestOutput12printFailureERK11TestFailure():
/home/rodne/dev/cProjects/cpputest/cpputest_build/../src/CppUTest/TestOutput.cpp:210 (discriminator 1)
    printFailureMessage(failure.getMessage());
    b89a:	4c 89 ef             	mov    %r13,%rdi
    b89d:	e8 2e 6d 00 00       	callq  125d0 <_ZN12SimpleStringD1Ev>
    b8a2:	48 89 ef             	mov    %rbp,%rdi
    b8a5:	e8 16 ec ff ff       	callq  a4c0 <_Unwind_Resume@plt>

000000000000b8aa <_ZN14NullTestPlugin8instanceEv.cold>:
_ZN14NullTestPlugin8instanceEv():
/home/rodne/dev/cProjects/cpputest/cpputest_build/../src/CppUTest/TestPlugin.cpp:159 (discriminator 3)
{
}

NullTestPlugin* NullTestPlugin::instance()
{
    static NullTestPlugin _instance;
    b8aa:	48 8d 3d ef dc 02 00 	lea    0x2dcef(%rip),%rdi        # 395a0 <_ZGVZN14NullTestPlugin8instanceEvE9_instance>
    b8b1:	e8 5a ea ff ff       	callq  a310 <__cxa_guard_abort@plt>
    b8b6:	48 89 ef             	mov    %rbp,%rdi
    b8b9:	e8 02 ec ff ff       	callq  a4c0 <_Unwind_Resume@plt>

000000000000b8be <_ZN12TestRegistry18listTestGroupNamesER10TestResult.cold>:
_ZN12TestRegistry18listTestGroupNamesER10TestResult():
/home/rodne/dev/cProjects/cpputest/cpputest_build/../src/CppUTest/TestRegistry.cpp:95 (discriminator 3)
    }

    groupList.replace("#", "");

    if (groupList.endsWith(" "))
        groupList = groupList.subString(0, groupList.size() - 1);
    b8be:	4c 89 e7             	mov    %r12,%rdi
    b8c1:	e8 0a 6d 00 00       	callq  125d0 <_ZN12SimpleStringD1Ev>
/home/rodne/dev/cProjects/cpputest/cpputest_build/../src/CppUTest/TestRegistry.cpp:78
    SimpleString groupList;
    b8c6:	4c 89 f7             	mov    %r14,%rdi
    b8c9:	e8 02 6d 00 00       	callq  125d0 <_ZN12SimpleStringD1Ev>
    b8ce:	48 89 ef             	mov    %rbp,%rdi
    b8d1:	e8 ea eb ff ff       	callq  a4c0 <_Unwind_Resume@plt>
/home/rodne/dev/cProjects/cpputest/cpputest_build/../src/CppUTest/TestRegistry.cpp:94 (discriminator 2)
    if (groupList.endsWith(" "))
    b8d6:	4c 89 e7             	mov    %r12,%rdi
    b8d9:	e8 f2 6c 00 00       	callq  125d0 <_ZN12SimpleStringD1Ev>
    b8de:	eb e6                	jmp    b8c6 <_ZN12TestRegistry18listTestGroupNamesER10TestResult.cold+0x8>
/home/rodne/dev/cProjects/cpputest/cpputest_build/../src/CppUTest/TestRegistry.cpp:83 (discriminator 2)
        gname += test->getGroup();
    b8e0:	4c 89 e7             	mov    %r12,%rdi
    b8e3:	e8 e8 6c 00 00       	callq  125d0 <_ZN12SimpleStringD1Ev>
/home/rodne/dev/cProjects/cpputest/cpputest_build/../src/CppUTest/TestRegistry.cpp:81
        SimpleString gname;
    b8e8:	4c 89 ef             	mov    %r13,%rdi
    b8eb:	e8 e0 6c 00 00       	callq  125d0 <_ZN12SimpleStringD1Ev>
    b8f0:	eb d4                	jmp    b8c6 <_ZN12TestRegistry18listTestGroupNamesER10TestResult.cold+0x8>

000000000000b8f2 <_ZN12TestRegistry17listTestLocationsER10TestResult.cold>:
_ZN12TestRegistry17listTestLocationsER10TestResult():
/home/rodne/dev/cProjects/cpputest/cpputest_build/../src/CppUTest/TestRegistry.cpp:138 (discriminator 3)
            testLocation += ".";
            testLocation += test->getName();
            testLocation += ".";
            testLocation += test->getFile();
            testLocation += ".";
            testLocation += StringFromFormat("%d\n",(int) test->getLineNumber());
    b8f2:	48 89 ef             	mov    %rbp,%rdi
    b8f5:	e8 d6 6c 00 00       	callq  125d0 <_ZN12SimpleStringD1Ev>
/home/rodne/dev/cProjects/cpputest/cpputest_build/../src/CppUTest/TestRegistry.cpp:131
            SimpleString testLocation;
    b8fa:	4c 89 ef             	mov    %r13,%rdi
    b8fd:	4c 89 e5             	mov    %r12,%rbp
    b900:	e8 cb 6c 00 00       	callq  125d0 <_ZN12SimpleStringD1Ev>
/home/rodne/dev/cProjects/cpputest/cpputest_build/../src/CppUTest/TestRegistry.cpp:128
    SimpleString testLocations;
    b905:	4c 89 f7             	mov    %r14,%rdi
    b908:	e8 c3 6c 00 00       	callq  125d0 <_ZN12SimpleStringD1Ev>
    b90d:	48 89 ef             	mov    %rbp,%rdi
    b910:	e8 ab eb ff ff       	callq  a4c0 <_Unwind_Resume@plt>
/home/rodne/dev/cProjects/cpputest/cpputest_build/../src/CppUTest/TestRegistry.cpp:136 (discriminator 2)
            testLocation += test->getFile();
    b915:	48 89 ef             	mov    %rbp,%rdi
    b918:	e8 b3 6c 00 00       	callq  125d0 <_ZN12SimpleStringD1Ev>
    b91d:	eb db                	jmp    b8fa <_ZN12TestRegistry17listTestLocationsER10TestResult.cold+0x8>
/home/rodne/dev/cProjects/cpputest/cpputest_build/../src/CppUTest/TestRegistry.cpp:134 (discriminator 2)
            testLocation += test->getName();
    b91f:	48 89 ef             	mov    %rbp,%rdi
    b922:	e8 a9 6c 00 00       	callq  125d0 <_ZN12SimpleStringD1Ev>
    b927:	eb d1                	jmp    b8fa <_ZN12TestRegistry17listTestLocationsER10TestResult.cold+0x8>
/home/rodne/dev/cProjects/cpputest/cpputest_build/../src/CppUTest/TestRegistry.cpp:132 (discriminator 2)
            testLocation += test->getGroup();
    b929:	48 89 ef             	mov    %rbp,%rdi
    b92c:	e8 9f 6c 00 00       	callq  125d0 <_ZN12SimpleStringD1Ev>
    b931:	eb c7                	jmp    b8fa <_ZN12TestRegistry17listTestLocationsER10TestResult.cold+0x8>
_ZN12TestRegistry17listTestLocationsER10TestResult.cold():
/home/rodne/dev/cProjects/cpputest/cpputest_build/../src/CppUTest/TestRegistry.cpp:132 (discriminator 2)
    b933:	90                   	nop

000000000000b934 <_ZN12TestRegistry16findTestWithNameERK12SimpleString.cold>:
_ZN12TestRegistry16findTestWithNameERK12SimpleString():
/home/rodne/dev/cProjects/cpputest/cpputest_build/../src/CppUTest/TestRegistry.cpp:276 (discriminator 1)

UtestShell* TestRegistry::findTestWithName(const SimpleString& name)
{
    UtestShell* current = tests_;
    while (current) {
        if (current->getName() == name)
    b934:	4c 89 e7             	mov    %r12,%rdi
    b937:	e8 94 6c 00 00       	callq  125d0 <_ZN12SimpleStringD1Ev>
    b93c:	48 89 ef             	mov    %rbp,%rdi
    b93f:	e8 7c eb ff ff       	callq  a4c0 <_Unwind_Resume@plt>

000000000000b944 <_ZN12TestRegistry17findTestWithGroupERK12SimpleString.cold>:
_ZN12TestRegistry17findTestWithGroupERK12SimpleString():
/home/rodne/dev/cProjects/cpputest/cpputest_build/../src/CppUTest/TestRegistry.cpp:287 (discriminator 1)

UtestShell* TestRegistry::findTestWithGroup(const SimpleString& group)
{
    UtestShell* current = tests_;
    while (current) {
        if (current->getGroup() == group)
    b944:	4c 89 e7             	mov    %r12,%rdi
    b947:	e8 84 6c 00 00       	callq  125d0 <_ZN12SimpleStringD1Ev>
    b94c:	48 89 ef             	mov    %rbp,%rdi
    b94f:	e8 6c eb ff ff       	callq  a4c0 <_Unwind_Resume@plt>

000000000000b954 <_ZN12TestRegistry12reverseTestsEv.cold>:
_ZN12TestRegistry12reverseTestsEv():
/home/rodne/dev/cProjects/cpputest/cpputest_build/../src/CppUTest/TestRegistry.cpp:259
    UtestShellPointerArray array(getFirstTest());
    b954:	48 89 ef             	mov    %rbp,%rdi
    b957:	e8 64 43 01 00       	callq  1fcc0 <_ZN22UtestShellPointerArrayD1Ev>
    b95c:	4c 89 e7             	mov    %r12,%rdi
    b95f:	e8 5c eb ff ff       	callq  a4c0 <_Unwind_Resume@plt>

000000000000b964 <_ZN12TestRegistry12shuffleTestsEm.cold>:
_ZN12TestRegistry12shuffleTestsEm():
/home/rodne/dev/cProjects/cpputest/cpputest_build/../src/CppUTest/TestRegistry.cpp:252
    UtestShellPointerArray array(getFirstTest());
    b964:	48 89 ef             	mov    %rbp,%rdi
    b967:	e8 54 43 01 00       	callq  1fcc0 <_ZN22UtestShellPointerArrayD1Ev>
    b96c:	4c 89 e7             	mov    %r12,%rdi
    b96f:	e8 4c eb ff ff       	callq  a4c0 <_Unwind_Resume@plt>

000000000000b974 <_ZN12TestRegistry10endOfGroupEP10UtestShell.cold>:
_ZN12TestRegistry10endOfGroupEP10UtestShell():
/home/rodne/dev/cProjects/cpputest/cpputest_build/../src/CppUTest/TestRegistry.cpp:148
    return (!test || !test->getNext() || test->getGroup() != test->getNext()->getGroup());
    b974:	4c 89 ef             	mov    %r13,%rdi
    b977:	e8 54 6c 00 00       	callq  125d0 <_ZN12SimpleStringD1Ev>
/home/rodne/dev/cProjects/cpputest/cpputest_build/../src/CppUTest/TestRegistry.cpp:148 (discriminator 25)
    b97c:	48 8d 7c 24 10       	lea    0x10(%rsp),%rdi
    b981:	e8 4a 6c 00 00       	callq  125d0 <_ZN12SimpleStringD1Ev>
    b986:	48 89 ef             	mov    %rbp,%rdi
    b989:	e8 32 eb ff ff       	callq  a4c0 <_Unwind_Resume@plt>

000000000000b98e <_ZN12TestRegistry18getCurrentRegistryEv.cold>:
_ZN12TestRegistry18getCurrentRegistryEv():
/home/rodne/dev/cProjects/cpputest/cpputest_build/../src/CppUTest/TestRegistry.cpp:160 (discriminator 3)
    static TestRegistry registry;
    b98e:	48 8d 3d 93 de 02 00 	lea    0x2de93(%rip),%rdi        # 39828 <_ZGVZN12TestRegistry18getCurrentRegistryEvE8registry>
    b995:	e8 76 e9 ff ff       	callq  a310 <__cxa_guard_abort@plt>
    b99a:	48 89 ef             	mov    %rbp,%rdi
    b99d:	e8 1e eb ff ff       	callq  a4c0 <_Unwind_Resume@plt>

000000000000b9a2 <_ZN12TestRegistry25listTestGroupAndCaseNamesER10TestResult.cold>:
_ZN12TestRegistry25listTestGroupAndCaseNamesER10TestResult():
/home/rodne/dev/cProjects/cpputest/cpputest_build/../src/CppUTest/TestRegistry.cpp:122 (discriminator 3)
        groupAndNameList = groupAndNameList.subString(0, groupAndNameList.size() - 1);
    b9a2:	4c 89 e7             	mov    %r12,%rdi
    b9a5:	e8 26 6c 00 00       	callq  125d0 <_ZN12SimpleStringD1Ev>
/home/rodne/dev/cProjects/cpputest/cpputest_build/../src/CppUTest/TestRegistry.cpp:101
    SimpleString groupAndNameList;
    b9aa:	4c 89 ff             	mov    %r15,%rdi
    b9ad:	e8 1e 6c 00 00       	callq  125d0 <_ZN12SimpleStringD1Ev>
    b9b2:	48 89 ef             	mov    %rbp,%rdi
    b9b5:	e8 06 eb ff ff       	callq  a4c0 <_Unwind_Resume@plt>
/home/rodne/dev/cProjects/cpputest/cpputest_build/../src/CppUTest/TestRegistry.cpp:121 (discriminator 2)
    if (groupAndNameList.endsWith(" "))
    b9ba:	4c 89 e7             	mov    %r12,%rdi
    b9bd:	e8 0e 6c 00 00       	callq  125d0 <_ZN12SimpleStringD1Ev>
    b9c2:	eb e6                	jmp    b9aa <_ZN12TestRegistry25listTestGroupAndCaseNamesER10TestResult.cold+0x8>
/home/rodne/dev/cProjects/cpputest/cpputest_build/../src/CppUTest/TestRegistry.cpp:109 (discriminator 2)
            groupAndName += test->getName();
    b9c4:	4c 89 e7             	mov    %r12,%rdi
    b9c7:	e8 04 6c 00 00       	callq  125d0 <_ZN12SimpleStringD1Ev>
/home/rodne/dev/cProjects/cpputest/cpputest_build/../src/CppUTest/TestRegistry.cpp:105
            SimpleString groupAndName;
    b9cc:	4c 89 ef             	mov    %r13,%rdi
    b9cf:	e8 fc 6b 00 00       	callq  125d0 <_ZN12SimpleStringD1Ev>
    b9d4:	eb d4                	jmp    b9aa <_ZN12TestRegistry25listTestGroupAndCaseNamesER10TestResult.cold+0x8>
/home/rodne/dev/cProjects/cpputest/cpputest_build/../src/CppUTest/TestRegistry.cpp:107 (discriminator 2)
            groupAndName += test->getGroup();
    b9d6:	4c 89 e7             	mov    %r12,%rdi
    b9d9:	e8 f2 6b 00 00       	callq  125d0 <_ZN12SimpleStringD1Ev>
    b9de:	eb ec                	jmp    b9cc <_ZN12TestRegistry25listTestGroupAndCaseNamesER10TestResult.cold+0x2a>

000000000000b9e0 <_ZNK10UtestShell16getFormattedNameEv.cold>:
_ZNK10UtestShell16getFormattedNameEv.cold():
    b9e0:	4c 89 e7             	mov    %r12,%rdi
    b9e3:	e8 e8 6b 00 00       	callq  125d0 <_ZN12SimpleStringD1Ev>
    b9e8:	48 89 ef             	mov    %rbp,%rdi
    b9eb:	e8 d0 ea ff ff       	callq  a4c0 <_Unwind_Resume@plt>

000000000000b9f0 <_ZNK20NormalTestTerminator15exitCurrentTestEv>:
_ZNK20NormalTestTerminator15exitCurrentTestEv():
/home/rodne/dev/cProjects/cpputest/cpputest_build/../src/CppUTest/Utest.cpp:693
TestTerminator::~TestTerminator()
{
}

void NormalTestTerminator::exitCurrentTest() const
{
    b9f0:	f3 0f 1e fa          	endbr64 
    b9f4:	50                   	push   %rax
    b9f5:	58                   	pop    %rax
/home/rodne/dev/cProjects/cpputest/cpputest_build/../src/CppUTest/Utest.cpp:695
    #if CPPUTEST_USE_STD_CPP_LIB
        throw CppUTestFailedException();
    b9f6:	bf 04 00 00 00       	mov    $0x4,%edi
/home/rodne/dev/cProjects/cpputest/cpputest_build/../src/CppUTest/Utest.cpp:693
{
    b9fb:	50                   	push   %rax
/home/rodne/dev/cProjects/cpputest/cpputest_build/../src/CppUTest/Utest.cpp:695
        throw CppUTestFailedException();
    b9fc:	e8 ff e8 ff ff       	callq  a300 <__cxa_allocate_exception@plt>
    ba01:	31 d2                	xor    %edx,%edx
    ba03:	48 8d 35 de d1 02 00 	lea    0x2d1de(%rip),%rsi        # 38be8 <_ZTVN10__cxxabiv117__class_type_infoE@CXXABI_1.3>
    ba0a:	c7 00 00 00 00 00    	movl   $0x0,(%rax)
    ba10:	48 89 c7             	mov    %rax,%rdi
    ba13:	e8 98 ea ff ff       	callq  a4b0 <__cxa_throw@plt>

000000000000ba18 <_ZN22OutsideTestRunnerUTest8instanceEv.cold>:
_ZN17ConsoleTestOutputD4Ev():
/home/rodne/dev/cProjects/cpputest/cpputest_build/../include/CppUTest/TestOutput.h:121
    ba18:	48 8d 3d b9 de 02 00 	lea    0x2deb9(%rip),%rdi        # 398d8 <_ZZN22OutsideTestRunnerUTest8instanceEvE9instance_+0x38>
    ba1f:	48 89 1d b2 de 02 00 	mov    %rbx,0x2deb2(%rip)        # 398d8 <_ZZN22OutsideTestRunnerUTest8instanceEvE9instance_+0x38>
    ba26:	e8 b5 f3 00 00       	callq  1ade0 <_ZN10TestOutputD1Ev>
_ZN22OutsideTestRunnerUTest8instanceEv():
/home/rodne/dev/cProjects/cpputest/cpputest_build/../src/CppUTest/Utest.cpp:77 (discriminator 3)
    static OutsideTestRunnerUTest instance_;
    ba2b:	48 8d 3d 5e de 02 00 	lea    0x2de5e(%rip),%rdi        # 39890 <_ZGVZN22OutsideTestRunnerUTest8instanceEvE9instance_>
    ba32:	e8 d9 e8 ff ff       	callq  a310 <__cxa_guard_abort@plt>
    ba37:	48 89 ef             	mov    %rbp,%rdi
    ba3a:	e8 81 ea ff ff       	callq  a4c0 <_Unwind_Resume@plt>
_ZN22OutsideTestRunnerUTest8instanceEv.cold():
/home/rodne/dev/cProjects/cpputest/cpputest_build/../src/CppUTest/Utest.cpp:77 (discriminator 3)
    ba3f:	90                   	nop

000000000000ba40 <_ZN10UtestShell10assertTrueEbPKcS1_S1_S1_mRK14TestTerminator.cold>:
_ZN12CheckFailureD4Ev():
/home/rodne/dev/cProjects/cpputest/cpputest_build/../include/CppUTest/TestFailure.h:113 (discriminator 7)
class CheckFailure : public TestFailure
    ba40:	48 8d 05 59 a9 02 00 	lea    0x2a959(%rip),%rax        # 363a0 <_ZTV12CheckFailure+0x10>
    ba47:	4c 89 ef             	mov    %r13,%rdi
    ba4a:	48 89 85 60 ff ff ff 	mov    %rax,-0xa0(%rbp)
    ba51:	e8 8a 9d 00 00       	callq  157e0 <_ZN11TestFailureD1Ev>
_ZN10UtestShell10assertTrueEbPKcS1_S1_S1_mRK14TestTerminator():
/home/rodne/dev/cProjects/cpputest/cpputest_build/../src/CppUTest/Utest.cpp:392 (discriminator 5)
        failWith(CheckFailure(this, fileName, lineNumber, checkString, conditionString, text), testTerminator);
    ba56:	4c 89 f7             	mov    %r14,%rdi
    ba59:	4d 89 e6             	mov    %r12,%r14
    ba5c:	e8 6f 6b 00 00       	callq  125d0 <_ZN12SimpleStringD1Ev>
/home/rodne/dev/cProjects/cpputest/cpputest_build/../src/CppUTest/Utest.cpp:392 (discriminator 3)
    ba61:	4c 89 ff             	mov    %r15,%rdi
    ba64:	4d 89 f7             	mov    %r14,%r15
    ba67:	e8 64 6b 00 00       	callq  125d0 <_ZN12SimpleStringD1Ev>
/home/rodne/dev/cProjects/cpputest/cpputest_build/../src/CppUTest/Utest.cpp:392 (discriminator 1)
    ba6c:	48 89 df             	mov    %rbx,%rdi
    ba6f:	e8 5c 6b 00 00       	callq  125d0 <_ZN12SimpleStringD1Ev>
    ba74:	4c 89 ff             	mov    %r15,%rdi
    ba77:	e8 44 ea ff ff       	callq  a4c0 <_Unwind_Resume@plt>

000000000000ba7c <_ZN10UtestShell4failEPKcS1_mRK14TestTerminator.cold>:
_ZN11FailFailureD4Ev():
/home/rodne/dev/cProjects/cpputest/cpputest_build/../include/CppUTest/TestFailure.h:119 (discriminator 3)
class FailFailure : public TestFailure
    ba7c:	48 8d 05 05 cb 02 00 	lea    0x2cb05(%rip),%rax        # 38588 <_ZTV11FailFailure+0x10>
    ba83:	4c 89 ef             	mov    %r13,%rdi
    ba86:	48 89 44 24 20       	mov    %rax,0x20(%rsp)
    ba8b:	e8 50 9d 00 00       	callq  157e0 <_ZN11TestFailureD1Ev>
_ZN10UtestShell4failEPKcS1_mRK14TestTerminator():
/home/rodne/dev/cProjects/cpputest/cpputest_build/../src/CppUTest/Utest.cpp:398 (discriminator 1)
    failWith(FailFailure(this, fileName, lineNumber, text), testTerminator);
    ba90:	4c 89 e7             	mov    %r12,%rdi
    ba93:	e8 38 6b 00 00       	callq  125d0 <_ZN12SimpleStringD1Ev>
    ba98:	48 89 ef             	mov    %rbp,%rdi
    ba9b:	e8 20 ea ff ff       	callq  a4c0 <_Unwind_Resume@plt>

000000000000baa0 <_ZN10UtestShell15assertCstrEqualEPKcS1_S1_S1_mRK14TestTerminator.cold>:
_ZN18StringEqualFailureD4Ev():
/home/rodne/dev/cProjects/cpputest/cpputest_build/../include/CppUTest/TestFailure.h:155 (discriminator 3)
{
public:
    SignedBytesEqualFailure (UtestShell* test, const char* fileName, size_t lineNumber, signed char expected, signed char actual, const SimpleString& text);
};

class StringEqualFailure : public TestFailure
    baa0:	48 8d 05 09 ab 02 00 	lea    0x2ab09(%rip),%rax        # 365b0 <_ZTV18StringEqualFailure+0x10>
    baa7:	4c 89 f7             	mov    %r14,%rdi
    baaa:	48 89 85 60 ff ff ff 	mov    %rax,-0xa0(%rbp)
    bab1:	e8 2a 9d 00 00       	callq  157e0 <_ZN11TestFailureD1Ev>
_ZN10UtestShell15assertCstrEqualEPKcS1_S1_S1_mRK14TestTerminator():
/home/rodne/dev/cProjects/cpputest/cpputest_build/../src/CppUTest/Utest.cpp:408 (discriminator 1)
        failWith(StringEqualFailure(this, fileName, lineNumber, expected, actual, text), testTerminator);
    bab6:	4c 89 ef             	mov    %r13,%rdi
    bab9:	e8 12 6b 00 00       	callq  125d0 <_ZN12SimpleStringD1Ev>
    babe:	48 89 df             	mov    %rbx,%rdi
    bac1:	e8 fa e9 ff ff       	callq  a4c0 <_Unwind_Resume@plt>
_ZN18StringEqualFailureD4Ev():
/home/rodne/dev/cProjects/cpputest/cpputest_build/../include/CppUTest/TestFailure.h:155 (discriminator 3)
    bac6:	48 8d 05 e3 aa 02 00 	lea    0x2aae3(%rip),%rax        # 365b0 <_ZTV18StringEqualFailure+0x10>
    bacd:	4c 89 f7             	mov    %r14,%rdi
    bad0:	48 89 85 60 ff ff ff 	mov    %rax,-0xa0(%rbp)
    bad7:	e8 04 9d 00 00       	callq  157e0 <_ZN11TestFailureD1Ev>
_ZN10UtestShell15assertCstrEqualEPKcS1_S1_S1_mRK14TestTerminator():
/home/rodne/dev/cProjects/cpputest/cpputest_build/../src/CppUTest/Utest.cpp:406 (discriminator 1)
        failWith(StringEqualFailure(this, fileName, lineNumber, expected, actual, text), testTerminator);
    badc:	4c 89 ef             	mov    %r13,%rdi
    badf:	e8 ec 6a 00 00       	callq  125d0 <_ZN12SimpleStringD1Ev>
    bae4:	48 89 df             	mov    %rbx,%rdi
    bae7:	e8 d4 e9 ff ff       	callq  a4c0 <_Unwind_Resume@plt>

000000000000baec <_ZN10UtestShell16assertCstrNEqualEPKcS1_mS1_S1_mRK14TestTerminator.cold>:
_ZN18StringEqualFailureD4Ev():
/home/rodne/dev/cProjects/cpputest/cpputest_build/../include/CppUTest/TestFailure.h:155 (discriminator 3)
    baec:	48 8d 05 bd aa 02 00 	lea    0x2aabd(%rip),%rax        # 365b0 <_ZTV18StringEqualFailure+0x10>
    baf3:	4c 89 f7             	mov    %r14,%rdi
    baf6:	48 89 85 60 ff ff ff 	mov    %rax,-0xa0(%rbp)
    bafd:	e8 de 9c 00 00       	callq  157e0 <_ZN11TestFailureD1Ev>
_ZN10UtestShell16assertCstrNEqualEPKcS1_mS1_S1_mRK14TestTerminator():
/home/rodne/dev/cProjects/cpputest/cpputest_build/../src/CppUTest/Utest.cpp:418 (discriminator 1)
        failWith(StringEqualFailure(this, fileName, lineNumber, expected, actual, text), testTerminator);
    bb02:	4c 89 ef             	mov    %r13,%rdi
    bb05:	e8 c6 6a 00 00       	callq  125d0 <_ZN12SimpleStringD1Ev>
    bb0a:	48 89 df             	mov    %rbx,%rdi
    bb0d:	e8 ae e9 ff ff       	callq  a4c0 <_Unwind_Resume@plt>
_ZN18StringEqualFailureD4Ev():
/home/rodne/dev/cProjects/cpputest/cpputest_build/../include/CppUTest/TestFailure.h:155 (discriminator 3)
    bb12:	48 8d 05 97 aa 02 00 	lea    0x2aa97(%rip),%rax        # 365b0 <_ZTV18StringEqualFailure+0x10>
    bb19:	4c 89 f7             	mov    %r14,%rdi
    bb1c:	48 89 85 60 ff ff ff 	mov    %rax,-0xa0(%rbp)
    bb23:	e8 b8 9c 00 00       	callq  157e0 <_ZN11TestFailureD1Ev>
_ZN10UtestShell16assertCstrNEqualEPKcS1_mS1_S1_mRK14TestTerminator():
/home/rodne/dev/cProjects/cpputest/cpputest_build/../src/CppUTest/Utest.cpp:416 (discriminator 1)
        failWith(StringEqualFailure(this, fileName, lineNumber, expected, actual, text), testTerminator);
    bb28:	4c 89 ef             	mov    %r13,%rdi
    bb2b:	e8 a0 6a 00 00       	callq  125d0 <_ZN12SimpleStringD1Ev>
    bb30:	48 89 df             	mov    %rbx,%rdi
    bb33:	e8 88 e9 ff ff       	callq  a4c0 <_Unwind_Resume@plt>

000000000000bb38 <_ZN10UtestShell21assertCstrNoCaseEqualEPKcS1_S1_S1_m.cold>:
_ZN10UtestShell21assertCstrNoCaseEqualEPKcS1_S1_S1_m():
/home/rodne/dev/cProjects/cpputest/cpputest_build/../src/CppUTest/Utest.cpp:427 (discriminator 3)
    if (!SimpleString(expected).equalsNoCase(actual))
    bb38:	4c 89 f7             	mov    %r14,%rdi
    bb3b:	e8 90 6a 00 00       	callq  125d0 <_ZN12SimpleStringD1Ev>
/home/rodne/dev/cProjects/cpputest/cpputest_build/../src/CppUTest/Utest.cpp:427 (discriminator 1)
    bb40:	4c 89 ef             	mov    %r13,%rdi
    bb43:	e8 88 6a 00 00       	callq  125d0 <_ZN12SimpleStringD1Ev>
    bb48:	48 89 df             	mov    %rbx,%rdi
    bb4b:	e8 70 e9 ff ff       	callq  a4c0 <_Unwind_Resume@plt>
_ZN24StringEqualNoCaseFailureD4Ev():
/home/rodne/dev/cProjects/cpputest/cpputest_build/../include/CppUTest/TestFailure.h:161 (discriminator 3)
{
public:
    StringEqualFailure(UtestShell* test, const char* fileName, size_t lineNumber, const char* expected, const char* actual, const SimpleString& text);
};

class StringEqualNoCaseFailure : public TestFailure
    bb50:	48 8d 05 b1 aa 02 00 	lea    0x2aab1(%rip),%rax        # 36608 <_ZTV24StringEqualNoCaseFailure+0x10>
    bb57:	4c 89 f7             	mov    %r14,%rdi
    bb5a:	48 89 85 60 ff ff ff 	mov    %rax,-0xa0(%rbp)
    bb61:	e8 7a 9c 00 00       	callq  157e0 <_ZN11TestFailureD1Ev>
_ZN10UtestShell21assertCstrNoCaseEqualEPKcS1_S1_S1_m():
/home/rodne/dev/cProjects/cpputest/cpputest_build/../src/CppUTest/Utest.cpp:428 (discriminator 1)
        failWith(StringEqualNoCaseFailure(this, fileName, lineNumber, expected, actual, text));
    bb66:	4c 89 ef             	mov    %r13,%rdi
    bb69:	e8 62 6a 00 00       	callq  125d0 <_ZN12SimpleStringD1Ev>
    bb6e:	48 89 df             	mov    %rbx,%rdi
    bb71:	e8 4a e9 ff ff       	callq  a4c0 <_Unwind_Resume@plt>
_ZN24StringEqualNoCaseFailureD4Ev():
/home/rodne/dev/cProjects/cpputest/cpputest_build/../include/CppUTest/TestFailure.h:161 (discriminator 3)
    bb76:	48 8d 05 8b aa 02 00 	lea    0x2aa8b(%rip),%rax        # 36608 <_ZTV24StringEqualNoCaseFailure+0x10>
    bb7d:	4c 89 f7             	mov    %r14,%rdi
    bb80:	48 89 85 60 ff ff ff 	mov    %rax,-0xa0(%rbp)
    bb87:	e8 54 9c 00 00       	callq  157e0 <_ZN11TestFailureD1Ev>
_ZN10UtestShell21assertCstrNoCaseEqualEPKcS1_S1_S1_m():
/home/rodne/dev/cProjects/cpputest/cpputest_build/../src/CppUTest/Utest.cpp:426 (discriminator 1)
        failWith(StringEqualNoCaseFailure(this, fileName, lineNumber, expected, actual, text));
    bb8c:	4c 89 ef             	mov    %r13,%rdi
    bb8f:	e8 3c 6a 00 00       	callq  125d0 <_ZN12SimpleStringD1Ev>
    bb94:	48 89 df             	mov    %rbx,%rdi
    bb97:	e8 24 e9 ff ff       	callq  a4c0 <_Unwind_Resume@plt>

000000000000bb9c <_ZN10UtestShell18assertCstrContainsEPKcS1_S1_S1_m.cold>:
_ZN15ContainsFailureD4Ev():
/home/rodne/dev/cProjects/cpputest/cpputest_build/../include/CppUTest/TestFailure.h:107 (discriminator 7)
class ContainsFailure: public TestFailure
    bb9c:	48 8d 05 a5 a7 02 00 	lea    0x2a7a5(%rip),%rax        # 36348 <_ZTV15ContainsFailure+0x10>
    bba3:	4c 89 ff             	mov    %r15,%rdi
    bba6:	4d 89 ef             	mov    %r13,%r15
    bba9:	48 89 85 60 ff ff ff 	mov    %rax,-0xa0(%rbp)
    bbb0:	e8 2b 9c 00 00       	callq  157e0 <_ZN11TestFailureD1Ev>
_ZN10UtestShell18assertCstrContainsEPKcS1_S1_S1_m():
/home/rodne/dev/cProjects/cpputest/cpputest_build/../src/CppUTest/Utest.cpp:438 (discriminator 5)
        failWith(ContainsFailure(this, fileName, lineNumber, expected, actual, text));
    bbb5:	48 8b bd 08 ff ff ff 	mov    -0xf8(%rbp),%rdi
    bbbc:	e8 0f 6a 00 00       	callq  125d0 <_ZN12SimpleStringD1Ev>
/home/rodne/dev/cProjects/cpputest/cpputest_build/../src/CppUTest/Utest.cpp:438 (discriminator 3)
    bbc1:	48 89 df             	mov    %rbx,%rdi
    bbc4:	4c 89 fb             	mov    %r15,%rbx
    bbc7:	e8 04 6a 00 00       	callq  125d0 <_ZN12SimpleStringD1Ev>
/home/rodne/dev/cProjects/cpputest/cpputest_build/../src/CppUTest/Utest.cpp:438 (discriminator 1)
    bbcc:	4c 89 f7             	mov    %r14,%rdi
    bbcf:	e8 fc 69 00 00       	callq  125d0 <_ZN12SimpleStringD1Ev>
    bbd4:	48 89 df             	mov    %rbx,%rdi
    bbd7:	e8 e4 e8 ff ff       	callq  a4c0 <_Unwind_Resume@plt>
_ZN15ContainsFailureD4Ev():
/home/rodne/dev/cProjects/cpputest/cpputest_build/../include/CppUTest/TestFailure.h:107 (discriminator 7)
    bbdc:	48 8d 05 65 a7 02 00 	lea    0x2a765(%rip),%rax        # 36348 <_ZTV15ContainsFailure+0x10>
    bbe3:	4c 89 ff             	mov    %r15,%rdi
    bbe6:	4d 89 ef             	mov    %r13,%r15
    bbe9:	48 89 85 60 ff ff ff 	mov    %rax,-0xa0(%rbp)
    bbf0:	e8 eb 9b 00 00       	callq  157e0 <_ZN11TestFailureD1Ev>
_ZN10UtestShell18assertCstrContainsEPKcS1_S1_S1_m():
/home/rodne/dev/cProjects/cpputest/cpputest_build/../src/CppUTest/Utest.cpp:436 (discriminator 5)
        failWith(ContainsFailure(this, fileName, lineNumber, expected, actual, text));
    bbf5:	48 8b bd 08 ff ff ff 	mov    -0xf8(%rbp),%rdi
    bbfc:	e8 cf 69 00 00       	callq  125d0 <_ZN12SimpleStringD1Ev>
/home/rodne/dev/cProjects/cpputest/cpputest_build/../src/CppUTest/Utest.cpp:436 (discriminator 3)
    bc01:	48 89 df             	mov    %rbx,%rdi
    bc04:	4c 89 fb             	mov    %r15,%rbx
    bc07:	e8 c4 69 00 00       	callq  125d0 <_ZN12SimpleStringD1Ev>
/home/rodne/dev/cProjects/cpputest/cpputest_build/../src/CppUTest/Utest.cpp:436 (discriminator 1)
    bc0c:	4c 89 f7             	mov    %r14,%rdi
    bc0f:	e8 bc 69 00 00       	callq  125d0 <_ZN12SimpleStringD1Ev>
    bc14:	48 89 df             	mov    %rbx,%rdi
    bc17:	e8 a4 e8 ff ff       	callq  a4c0 <_Unwind_Resume@plt>
/home/rodne/dev/cProjects/cpputest/cpputest_build/../src/CppUTest/Utest.cpp:437 (discriminator 3)
    if (!SimpleString(actual).contains(expected))
    bc1c:	4c 89 ff             	mov    %r15,%rdi
    bc1f:	e8 ac 69 00 00       	callq  125d0 <_ZN12SimpleStringD1Ev>
/home/rodne/dev/cProjects/cpputest/cpputest_build/../src/CppUTest/Utest.cpp:437 (discriminator 1)
    bc24:	4c 89 f7             	mov    %r14,%rdi
    bc27:	e8 a4 69 00 00       	callq  125d0 <_ZN12SimpleStringD1Ev>
    bc2c:	48 89 df             	mov    %rbx,%rdi
    bc2f:	e8 8c e8 ff ff       	callq  a4c0 <_Unwind_Resume@plt>

000000000000bc34 <_ZN10UtestShell24assertCstrNoCaseContainsEPKcS1_S1_S1_m.cold>:
_ZN15ContainsFailureD4Ev():
/home/rodne/dev/cProjects/cpputest/cpputest_build/../include/CppUTest/TestFailure.h:107 (discriminator 7)
    bc34:	48 8d 05 0d a7 02 00 	lea    0x2a70d(%rip),%rax        # 36348 <_ZTV15ContainsFailure+0x10>
    bc3b:	4c 89 ff             	mov    %r15,%rdi
    bc3e:	4d 89 ef             	mov    %r13,%r15
    bc41:	48 89 85 60 ff ff ff 	mov    %rax,-0xa0(%rbp)
    bc48:	e8 93 9b 00 00       	callq  157e0 <_ZN11TestFailureD1Ev>
_ZN10UtestShell24assertCstrNoCaseContainsEPKcS1_S1_S1_m():
/home/rodne/dev/cProjects/cpputest/cpputest_build/../src/CppUTest/Utest.cpp:448 (discriminator 5)
        failWith(ContainsFailure(this, fileName, lineNumber, expected, actual, text));
    bc4d:	48 8b bd 08 ff ff ff 	mov    -0xf8(%rbp),%rdi
    bc54:	e8 77 69 00 00       	callq  125d0 <_ZN12SimpleStringD1Ev>
/home/rodne/dev/cProjects/cpputest/cpputest_build/../src/CppUTest/Utest.cpp:448 (discriminator 3)
    bc59:	48 89 df             	mov    %rbx,%rdi
    bc5c:	4c 89 fb             	mov    %r15,%rbx
    bc5f:	e8 6c 69 00 00       	callq  125d0 <_ZN12SimpleStringD1Ev>
/home/rodne/dev/cProjects/cpputest/cpputest_build/../src/CppUTest/Utest.cpp:448 (discriminator 1)
    bc64:	4c 89 f7             	mov    %r14,%rdi
    bc67:	e8 64 69 00 00       	callq  125d0 <_ZN12SimpleStringD1Ev>
    bc6c:	48 89 df             	mov    %rbx,%rdi
    bc6f:	e8 4c e8 ff ff       	callq  a4c0 <_Unwind_Resume@plt>
_ZN15ContainsFailureD4Ev():
/home/rodne/dev/cProjects/cpputest/cpputest_build/../include/CppUTest/TestFailure.h:107 (discriminator 7)
    bc74:	48 8d 05 cd a6 02 00 	lea    0x2a6cd(%rip),%rax        # 36348 <_ZTV15ContainsFailure+0x10>
    bc7b:	4c 89 ff             	mov    %r15,%rdi
    bc7e:	4d 89 ef             	mov    %r13,%r15
    bc81:	48 89 85 60 ff ff ff 	mov    %rax,-0xa0(%rbp)
    bc88:	e8 53 9b 00 00       	callq  157e0 <_ZN11TestFailureD1Ev>
_ZN10UtestShell24assertCstrNoCaseContainsEPKcS1_S1_S1_m():
/home/rodne/dev/cProjects/cpputest/cpputest_build/../src/CppUTest/Utest.cpp:446 (discriminator 5)
        failWith(ContainsFailure(this, fileName, lineNumber, expected, actual, text));
    bc8d:	48 8b bd 08 ff ff ff 	mov    -0xf8(%rbp),%rdi
    bc94:	e8 37 69 00 00       	callq  125d0 <_ZN12SimpleStringD1Ev>
/home/rodne/dev/cProjects/cpputest/cpputest_build/../src/CppUTest/Utest.cpp:446 (discriminator 3)
    bc99:	48 89 df             	mov    %rbx,%rdi
    bc9c:	4c 89 fb             	mov    %r15,%rbx
    bc9f:	e8 2c 69 00 00       	callq  125d0 <_ZN12SimpleStringD1Ev>
/home/rodne/dev/cProjects/cpputest/cpputest_build/../src/CppUTest/Utest.cpp:446 (discriminator 1)
    bca4:	4c 89 f7             	mov    %r14,%rdi
    bca7:	e8 24 69 00 00       	callq  125d0 <_ZN12SimpleStringD1Ev>
    bcac:	48 89 df             	mov    %rbx,%rdi
    bcaf:	e8 0c e8 ff ff       	callq  a4c0 <_Unwind_Resume@plt>
/home/rodne/dev/cProjects/cpputest/cpputest_build/../src/CppUTest/Utest.cpp:447 (discriminator 3)
    if (!SimpleString(actual).containsNoCase(expected))
    bcb4:	4c 89 ff             	mov    %r15,%rdi
    bcb7:	e8 14 69 00 00       	callq  125d0 <_ZN12SimpleStringD1Ev>
/home/rodne/dev/cProjects/cpputest/cpputest_build/../src/CppUTest/Utest.cpp:447 (discriminator 1)
    bcbc:	4c 89 f7             	mov    %r14,%rdi
    bcbf:	e8 0c 69 00 00       	callq  125d0 <_ZN12SimpleStringD1Ev>
    bcc4:	48 89 df             	mov    %rbx,%rdi
    bcc7:	e8 f4 e7 ff ff       	callq  a4c0 <_Unwind_Resume@plt>

000000000000bccc <_ZN10UtestShell16assertLongsEqualEllPKcS1_mRK14TestTerminator.cold>:
_ZN17LongsEqualFailureD4Ev():
/home/rodne/dev/cProjects/cpputest/cpputest_build/../include/CppUTest/TestFailure.h:125 (discriminator 3)
class LongsEqualFailure : public TestFailure
    bccc:	48 8d 05 25 a7 02 00 	lea    0x2a725(%rip),%rax        # 363f8 <_ZTV17LongsEqualFailure+0x10>
    bcd3:	4c 89 f7             	mov    %r14,%rdi
    bcd6:	48 89 85 60 ff ff ff 	mov    %rax,-0xa0(%rbp)
    bcdd:	e8 fe 9a 00 00       	callq  157e0 <_ZN11TestFailureD1Ev>
_ZN10UtestShell16assertLongsEqualEllPKcS1_mRK14TestTerminator():
/home/rodne/dev/cProjects/cpputest/cpputest_build/../src/CppUTest/Utest.cpp:455 (discriminator 1)
        failWith(LongsEqualFailure (this, fileName, lineNumber, expected, actual, text), testTerminator);
    bce2:	4c 89 ff             	mov    %r15,%rdi
    bce5:	e8 e6 68 00 00       	callq  125d0 <_ZN12SimpleStringD1Ev>
    bcea:	48 89 df             	mov    %rbx,%rdi
    bced:	e8 ce e7 ff ff       	callq  a4c0 <_Unwind_Resume@plt>

000000000000bcf2 <_ZN10UtestShell24assertUnsignedLongsEqualEmmPKcS1_mRK14TestTerminator.cold>:
_ZN25UnsignedLongsEqualFailureD4Ev():
/home/rodne/dev/cProjects/cpputest/cpputest_build/../include/CppUTest/TestFailure.h:131 (discriminator 3)
class UnsignedLongsEqualFailure : public TestFailure
    bcf2:	48 8d 05 57 a7 02 00 	lea    0x2a757(%rip),%rax        # 36450 <_ZTV25UnsignedLongsEqualFailure+0x10>
    bcf9:	4c 89 f7             	mov    %r14,%rdi
    bcfc:	48 89 85 60 ff ff ff 	mov    %rax,-0xa0(%rbp)
    bd03:	e8 d8 9a 00 00       	callq  157e0 <_ZN11TestFailureD1Ev>
_ZN10UtestShell24assertUnsignedLongsEqualEmmPKcS1_mRK14TestTerminator():
/home/rodne/dev/cProjects/cpputest/cpputest_build/../src/CppUTest/Utest.cpp:462 (discriminator 1)
        failWith(UnsignedLongsEqualFailure (this, fileName, lineNumber, expected, actual, text), testTerminator);
    bd08:	4c 89 ff             	mov    %r15,%rdi
    bd0b:	e8 c0 68 00 00       	callq  125d0 <_ZN12SimpleStringD1Ev>
    bd10:	48 89 df             	mov    %rbx,%rdi
    bd13:	e8 a8 e7 ff ff       	callq  a4c0 <_Unwind_Resume@plt>

000000000000bd18 <_ZN10UtestShell20assertLongLongsEqualExxPKcS1_mRK14TestTerminator.cold>:
_ZN21LongLongsEqualFailureD4Ev():
/home/rodne/dev/cProjects/cpputest/cpputest_build/../include/CppUTest/TestFailure.h:137 (discriminator 3)
class LongLongsEqualFailure : public TestFailure
    bd18:	48 8d 05 89 a7 02 00 	lea    0x2a789(%rip),%rax        # 364a8 <_ZTV21LongLongsEqualFailure+0x10>
    bd1f:	4c 89 f7             	mov    %r14,%rdi
    bd22:	48 89 85 60 ff ff ff 	mov    %rax,-0xa0(%rbp)
    bd29:	e8 b2 9a 00 00       	callq  157e0 <_ZN11TestFailureD1Ev>
_ZN10UtestShell20assertLongLongsEqualExxPKcS1_mRK14TestTerminator():
/home/rodne/dev/cProjects/cpputest/cpputest_build/../src/CppUTest/Utest.cpp:470 (discriminator 1)
        failWith(LongLongsEqualFailure(this, fileName, lineNumber, expected, actual, text), testTerminator);
    bd2e:	4c 89 ff             	mov    %r15,%rdi
    bd31:	e8 9a 68 00 00       	callq  125d0 <_ZN12SimpleStringD1Ev>
    bd36:	48 89 df             	mov    %rbx,%rdi
    bd39:	e8 82 e7 ff ff       	callq  a4c0 <_Unwind_Resume@plt>

000000000000bd3e <_ZN10UtestShell28assertUnsignedLongLongsEqualEyyPKcS1_mRK14TestTerminator.cold>:
_ZN29UnsignedLongLongsEqualFailureD4Ev():
/home/rodne/dev/cProjects/cpputest/cpputest_build/../include/CppUTest/TestFailure.h:143 (discriminator 3)
class UnsignedLongLongsEqualFailure : public TestFailure
    bd3e:	48 8d 05 bb a7 02 00 	lea    0x2a7bb(%rip),%rax        # 36500 <_ZTV29UnsignedLongLongsEqualFailure+0x10>
    bd45:	4c 89 f7             	mov    %r14,%rdi
    bd48:	48 89 85 60 ff ff ff 	mov    %rax,-0xa0(%rbp)
    bd4f:	e8 8c 9a 00 00       	callq  157e0 <_ZN11TestFailureD1Ev>
_ZN10UtestShell28assertUnsignedLongLongsEqualEyyPKcS1_mRK14TestTerminator():
/home/rodne/dev/cProjects/cpputest/cpputest_build/../src/CppUTest/Utest.cpp:483 (discriminator 1)
        failWith(UnsignedLongLongsEqualFailure(this, fileName, lineNumber, expected, actual, text), testTerminator);
    bd54:	4c 89 ff             	mov    %r15,%rdi
    bd57:	e8 74 68 00 00       	callq  125d0 <_ZN12SimpleStringD1Ev>
    bd5c:	48 89 df             	mov    %rbx,%rdi
    bd5f:	e8 5c e7 ff ff       	callq  a4c0 <_Unwind_Resume@plt>

000000000000bd64 <_ZN10UtestShell22assertSignedBytesEqualEaaPKcS1_mRK14TestTerminator.cold>:
_ZN23SignedBytesEqualFailureD4Ev():
/home/rodne/dev/cProjects/cpputest/cpputest_build/../include/CppUTest/TestFailure.h:149 (discriminator 3)
class SignedBytesEqualFailure : public TestFailure
    bd64:	48 8d 05 ed a7 02 00 	lea    0x2a7ed(%rip),%rax        # 36558 <_ZTV23SignedBytesEqualFailure+0x10>
    bd6b:	4c 89 f7             	mov    %r14,%rdi
    bd6e:	48 89 85 60 ff ff ff 	mov    %rax,-0xa0(%rbp)
    bd75:	e8 66 9a 00 00       	callq  157e0 <_ZN11TestFailureD1Ev>
_ZN10UtestShell22assertSignedBytesEqualEaaPKcS1_mRK14TestTerminator():
/home/rodne/dev/cProjects/cpputest/cpputest_build/../src/CppUTest/Utest.cpp:495 (discriminator 1)
        failWith(SignedBytesEqualFailure (this, fileName, lineNumber, expected, actual, text), testTerminator);
    bd7a:	4c 89 ff             	mov    %r15,%rdi
    bd7d:	e8 4e 68 00 00       	callq  125d0 <_ZN12SimpleStringD1Ev>
    bd82:	48 89 df             	mov    %rbx,%rdi
    bd85:	e8 36 e7 ff ff       	callq  a4c0 <_Unwind_Resume@plt>

000000000000bd8a <_ZN10UtestShell19assertPointersEqualEPKvS1_PKcS3_mRK14TestTerminator.cold>:
_ZN13EqualsFailureD4Ev():
/home/rodne/dev/cProjects/cpputest/cpputest_build/../include/CppUTest/TestFailure.h:82 (discriminator 7)
class EqualsFailure: public TestFailure
    bd8a:	48 8d 05 57 a4 02 00 	lea    0x2a457(%rip),%rax        # 361e8 <_ZTV13EqualsFailure+0x10>
    bd91:	4c 89 e7             	mov    %r12,%rdi
    bd94:	48 89 85 60 ff ff ff 	mov    %rax,-0xa0(%rbp)
    bd9b:	e8 40 9a 00 00       	callq  157e0 <_ZN11TestFailureD1Ev>
_ZN10UtestShell19assertPointersEqualEPKvS1_PKcS3_mRK14TestTerminator():
/home/rodne/dev/cProjects/cpputest/cpputest_build/../src/CppUTest/Utest.cpp:502 (discriminator 5)
        failWith(EqualsFailure(this, fileName, lineNumber, StringFrom(expected), StringFrom(actual), text), testTerminator);
    bda0:	4c 89 ef             	mov    %r13,%rdi
    bda3:	e8 28 68 00 00       	callq  125d0 <_ZN12SimpleStringD1Ev>
/home/rodne/dev/cProjects/cpputest/cpputest_build/../src/CppUTest/Utest.cpp:502 (discriminator 3)
    bda8:	4c 89 ff             	mov    %r15,%rdi
    bdab:	e8 20 68 00 00       	callq  125d0 <_ZN12SimpleStringD1Ev>
/home/rodne/dev/cProjects/cpputest/cpputest_build/../src/CppUTest/Utest.cpp:502 (discriminator 1)
    bdb0:	48 89 df             	mov    %rbx,%rdi
    bdb3:	e8 18 68 00 00       	callq  125d0 <_ZN12SimpleStringD1Ev>
    bdb8:	4c 89 f7             	mov    %r14,%rdi
    bdbb:	e8 00 e7 ff ff       	callq  a4c0 <_Unwind_Resume@plt>

000000000000bdc0 <_ZN10UtestShell27assertFunctionPointersEqualEPFvvES1_PKcS3_mRK14TestTerminator.cold>:
_ZN13EqualsFailureD4Ev():
/home/rodne/dev/cProjects/cpputest/cpputest_build/../include/CppUTest/TestFailure.h:82 (discriminator 7)
    bdc0:	48 8d 05 21 a4 02 00 	lea    0x2a421(%rip),%rax        # 361e8 <_ZTV13EqualsFailure+0x10>
    bdc7:	4c 89 e7             	mov    %r12,%rdi
    bdca:	48 89 85 60 ff ff ff 	mov    %rax,-0xa0(%rbp)
    bdd1:	e8 0a 9a 00 00       	callq  157e0 <_ZN11TestFailureD1Ev>
_ZN10UtestShell27assertFunctionPointersEqualEPFvvES1_PKcS3_mRK14TestTerminator():
/home/rodne/dev/cProjects/cpputest/cpputest_build/../src/CppUTest/Utest.cpp:509 (discriminator 5)
        failWith(EqualsFailure(this, fileName, lineNumber, StringFrom(expected), StringFrom(actual), text), testTerminator);
    bdd6:	4c 89 ef             	mov    %r13,%rdi
    bdd9:	e8 f2 67 00 00       	callq  125d0 <_ZN12SimpleStringD1Ev>
/home/rodne/dev/cProjects/cpputest/cpputest_build/../src/CppUTest/Utest.cpp:509 (discriminator 3)
    bdde:	4c 89 ff             	mov    %r15,%rdi
    bde1:	e8 ea 67 00 00       	callq  125d0 <_ZN12SimpleStringD1Ev>
/home/rodne/dev/cProjects/cpputest/cpputest_build/../src/CppUTest/Utest.cpp:509 (discriminator 1)
    bde6:	48 89 df             	mov    %rbx,%rdi
    bde9:	e8 e2 67 00 00       	callq  125d0 <_ZN12SimpleStringD1Ev>
    bdee:	4c 89 f7             	mov    %r14,%rdi
    bdf1:	e8 ca e6 ff ff       	callq  a4c0 <_Unwind_Resume@plt>

000000000000bdf6 <_ZN10UtestShell18assertDoublesEqualEdddPKcS1_mRK14TestTerminator.cold>:
_ZN19DoublesEqualFailureD4Ev():
/home/rodne/dev/cProjects/cpputest/cpputest_build/../include/CppUTest/TestFailure.h:89 (discriminator 3)
class DoublesEqualFailure: public TestFailure
    bdf6:	48 8d 05 43 a4 02 00 	lea    0x2a443(%rip),%rax        # 36240 <_ZTV19DoublesEqualFailure+0x10>
    bdfd:	4c 89 ff             	mov    %r15,%rdi
    be00:	48 89 44 24 30       	mov    %rax,0x30(%rsp)
    be05:	e8 d6 99 00 00       	callq  157e0 <_ZN11TestFailureD1Ev>
_ZN10UtestShell18assertDoublesEqualEdddPKcS1_mRK14TestTerminator():
/home/rodne/dev/cProjects/cpputest/cpputest_build/../src/CppUTest/Utest.cpp:516 (discriminator 1)
        failWith(DoublesEqualFailure(this, fileName, lineNumber, expected, actual, threshold, text), testTerminator);
    be0a:	48 89 df             	mov    %rbx,%rdi
    be0d:	e8 be 67 00 00       	callq  125d0 <_ZN12SimpleStringD1Ev>
    be12:	48 89 ef             	mov    %rbp,%rdi
    be15:	e8 a6 e6 ff ff       	callq  a4c0 <_Unwind_Resume@plt>

000000000000be1a <_ZN10UtestShell17assertBinaryEqualEPKvS1_mPKcS3_mRK14TestTerminator.cold>:
_ZN18BinaryEqualFailureD4Ev():
/home/rodne/dev/cProjects/cpputest/cpputest_build/../include/CppUTest/TestFailure.h:167 (discriminator 3)
{
public:
    StringEqualNoCaseFailure(UtestShell* test, const char* fileName, size_t lineNumber, const char* expected, const char* actual, const SimpleString& text);
};

class BinaryEqualFailure : public TestFailure
    be1a:	48 8d 05 3f a8 02 00 	lea    0x2a83f(%rip),%rax        # 36660 <_ZTV18BinaryEqualFailure+0x10>
    be21:	4c 89 f7             	mov    %r14,%rdi
    be24:	48 89 85 60 ff ff ff 	mov    %rax,-0xa0(%rbp)
    be2b:	e8 b0 99 00 00       	callq  157e0 <_ZN11TestFailureD1Ev>
_ZN10UtestShell17assertBinaryEqualEPKvS1_mPKcS3_mRK14TestTerminator():
/home/rodne/dev/cProjects/cpputest/cpputest_build/../src/CppUTest/Utest.cpp:527 (discriminator 1)
        failWith(BinaryEqualFailure(this, fileName, lineNumber, (const unsigned char *) expected, (const unsigned char *) actual, length, text), testTerminator);
    be30:	4c 89 ff             	mov    %r15,%rdi
    be33:	e8 98 67 00 00       	callq  125d0 <_ZN12SimpleStringD1Ev>
    be38:	48 89 df             	mov    %rbx,%rdi
    be3b:	e8 80 e6 ff ff       	callq  a4c0 <_Unwind_Resume@plt>
_ZN18BinaryEqualFailureD4Ev():
/home/rodne/dev/cProjects/cpputest/cpputest_build/../include/CppUTest/TestFailure.h:167 (discriminator 3)
    be40:	48 8d 05 19 a8 02 00 	lea    0x2a819(%rip),%rax        # 36660 <_ZTV18BinaryEqualFailure+0x10>
    be47:	4c 89 f7             	mov    %r14,%rdi
    be4a:	48 89 85 60 ff ff ff 	mov    %rax,-0xa0(%rbp)
    be51:	e8 8a 99 00 00       	callq  157e0 <_ZN11TestFailureD1Ev>
_ZN10UtestShell17assertBinaryEqualEPKvS1_mPKcS3_mRK14TestTerminator():
/home/rodne/dev/cProjects/cpputest/cpputest_build/../src/CppUTest/Utest.cpp:525 (discriminator 1)
        failWith(BinaryEqualFailure(this, fileName, lineNumber, (const unsigned char *) expected, (const unsigned char *) actual, length, text), testTerminator);
    be56:	4c 89 ff             	mov    %r15,%rdi
    be59:	e8 72 67 00 00       	callq  125d0 <_ZN12SimpleStringD1Ev>
    be5e:	48 89 df             	mov    %rbx,%rdi
    be61:	e8 5a e6 ff ff       	callq  a4c0 <_Unwind_Resume@plt>

000000000000be66 <_ZN10UtestShell15assertBitsEqualEmmmmPKcS1_mRK14TestTerminator.cold>:
_ZN16BitsEqualFailureD4Ev():
/home/rodne/dev/cProjects/cpputest/cpputest_build/../include/CppUTest/TestFailure.h:173 (discriminator 3)
{
public:
	BinaryEqualFailure(UtestShell* test, const char* fileName, size_t lineNumber, const unsigned char* expected, const unsigned char* actual, size_t size, const SimpleString& text);
};

class BitsEqualFailure : public TestFailure
    be66:	48 8d 05 4b a8 02 00 	lea    0x2a84b(%rip),%rax        # 366b8 <_ZTV16BitsEqualFailure+0x10>
    be6d:	4c 89 f7             	mov    %r14,%rdi
    be70:	48 89 85 60 ff ff ff 	mov    %rax,-0xa0(%rbp)
    be77:	e8 64 99 00 00       	callq  157e0 <_ZN11TestFailureD1Ev>
_ZN10UtestShell15assertBitsEqualEmmmmPKcS1_mRK14TestTerminator():
/home/rodne/dev/cProjects/cpputest/cpputest_build/../src/CppUTest/Utest.cpp:534 (discriminator 1)
        failWith(BitsEqualFailure(this, fileName, lineNumber, expected, actual, mask, byteCount, text), testTerminator);
    be7c:	4c 89 ff             	mov    %r15,%rdi
    be7f:	e8 4c 67 00 00       	callq  125d0 <_ZN12SimpleStringD1Ev>
    be84:	48 89 df             	mov    %rbx,%rdi
    be87:	e8 34 e6 ff ff       	callq  a4c0 <_Unwind_Resume@plt>

000000000000be8c <_ZN10UtestShell12assertEqualsEbPKcS1_S1_S1_mRK14TestTerminator.cold>:
_ZN17CheckEqualFailureD4Ev():
/home/rodne/dev/cProjects/cpputest/cpputest_build/../include/CppUTest/TestFailure.h:95 (discriminator 7)
class CheckEqualFailure : public TestFailure
    be8c:	48 8d 05 05 a4 02 00 	lea    0x2a405(%rip),%rax        # 36298 <_ZTV17CheckEqualFailure+0x10>
    be93:	4c 89 ef             	mov    %r13,%rdi
    be96:	48 89 85 60 ff ff ff 	mov    %rax,-0xa0(%rbp)
    be9d:	e8 3e 99 00 00       	callq  157e0 <_ZN11TestFailureD1Ev>
_ZN10UtestShell12assertEqualsEbPKcS1_S1_S1_mRK14TestTerminator():
/home/rodne/dev/cProjects/cpputest/cpputest_build/../src/CppUTest/Utest.cpp:541 (discriminator 5)
        failWith(CheckEqualFailure(this, file, line, expected, actual, text), testTerminator);
    bea2:	4c 89 f7             	mov    %r14,%rdi
    bea5:	4d 89 e6             	mov    %r12,%r14
    bea8:	e8 23 67 00 00       	callq  125d0 <_ZN12SimpleStringD1Ev>
/home/rodne/dev/cProjects/cpputest/cpputest_build/../src/CppUTest/Utest.cpp:541 (discriminator 3)
    bead:	4c 89 ff             	mov    %r15,%rdi
    beb0:	4d 89 f7             	mov    %r14,%r15
    beb3:	e8 18 67 00 00       	callq  125d0 <_ZN12SimpleStringD1Ev>
/home/rodne/dev/cProjects/cpputest/cpputest_build/../src/CppUTest/Utest.cpp:541 (discriminator 1)
    beb8:	48 89 df             	mov    %rbx,%rdi
    bebb:	e8 10 67 00 00       	callq  125d0 <_ZN12SimpleStringD1Ev>
    bec0:	4c 89 ff             	mov    %r15,%rdi
    bec3:	e8 f8 e5 ff ff       	callq  a4c0 <_Unwind_Resume@plt>

000000000000bec8 <_ZN10UtestShell13assertCompareEbPKcS1_S1_S1_mRK14TestTerminator.cold>:
_ZN17ComparisonFailureD4Ev():
/home/rodne/dev/cProjects/cpputest/cpputest_build/../include/CppUTest/TestFailure.h:101 (discriminator 7)
class ComparisonFailure : public TestFailure
    bec8:	48 8d 05 21 a4 02 00 	lea    0x2a421(%rip),%rax        # 362f0 <_ZTV17ComparisonFailure+0x10>
    becf:	4c 89 ef             	mov    %r13,%rdi
    bed2:	48 89 85 60 ff ff ff 	mov    %rax,-0xa0(%rbp)
    bed9:	e8 02 99 00 00       	callq  157e0 <_ZN11TestFailureD1Ev>
_ZN10UtestShell13assertCompareEbPKcS1_S1_S1_mRK14TestTerminator():
/home/rodne/dev/cProjects/cpputest/cpputest_build/../src/CppUTest/Utest.cpp:548 (discriminator 5)
        failWith(ComparisonFailure(this, fileName, lineNumber, checkString, comparisonString, text), testTerminator);
    bede:	4c 89 f7             	mov    %r14,%rdi
    bee1:	4d 89 e6             	mov    %r12,%r14
    bee4:	e8 e7 66 00 00       	callq  125d0 <_ZN12SimpleStringD1Ev>
/home/rodne/dev/cProjects/cpputest/cpputest_build/../src/CppUTest/Utest.cpp:548 (discriminator 3)
    bee9:	4c 89 ff             	mov    %r15,%rdi
    beec:	4d 89 f7             	mov    %r14,%r15
    beef:	e8 dc 66 00 00       	callq  125d0 <_ZN12SimpleStringD1Ev>
/home/rodne/dev/cProjects/cpputest/cpputest_build/../src/CppUTest/Utest.cpp:548 (discriminator 1)
    bef4:	48 89 df             	mov    %rbx,%rdi
    bef7:	e8 d4 66 00 00       	callq  125d0 <_ZN12SimpleStringD1Ev>
    befc:	4c 89 ff             	mov    %r15,%rdi
    beff:	e8 bc e5 ff ff       	callq  a4c0 <_Unwind_Resume@plt>

000000000000bf04 <_ZN10UtestShell5printEPKcS1_m.cold>:
_ZN10UtestShell5printEPKcS1_m():
/home/rodne/dev/cProjects/cpputest/cpputest_build/../src/CppUTest/Utest.cpp:556 (discriminator 2)
    stringToPrint += StringFrom(lineNumber);
    bf04:	4c 89 e7             	mov    %r12,%rdi
    bf07:	e8 c4 66 00 00       	callq  125d0 <_ZN12SimpleStringD1Ev>
/home/rodne/dev/cProjects/cpputest/cpputest_build/../src/CppUTest/Utest.cpp:553
    SimpleString stringToPrint = "\n";
    bf0c:	48 89 ef             	mov    %rbp,%rdi
    bf0f:	e8 bc 66 00 00       	callq  125d0 <_ZN12SimpleStringD1Ev>
    bf14:	4c 89 ef             	mov    %r13,%rdi
    bf17:	e8 a4 e5 ff ff       	callq  a4c0 <_Unwind_Resume@plt>

000000000000bf1c <_ZN5Utest3runEv.cold>:
_ZN10UtestShell10getCurrentEv():
/home/rodne/dev/cProjects/cpputest/cpputest_build/../src/CppUTest/Utest.cpp:553
    bf1c:	48 83 e8 01          	sub    $0x1,%rax
    bf20:	75 3a                	jne    bf5c <_ZN5Utest3runEv.cold+0x40>
_ZN5Utest3runEv():
/home/rodne/dev/cProjects/cpputest/cpputest_build/../src/CppUTest/Utest.cpp:645
    catch (CppUTestFailedException&)
    bf22:	e8 b9 e3 ff ff       	callq  a2e0 <__cxa_begin_catch@plt>
/home/rodne/dev/cProjects/cpputest/cpputest_build/../src/CppUTest/Utest.cpp:647
        PlatformSpecificRestoreJumpBuffer();
    bf27:	ff 15 2b d2 02 00    	callq  *0x2d22b(%rip)        # 39158 <PlatformSpecificRestoreJumpBuffer>
/home/rodne/dev/cProjects/cpputest/cpputest_build/../src/CppUTest/Utest.cpp:645
    catch (CppUTestFailedException&)
    bf2d:	e8 6e e5 ff ff       	callq  a4a0 <__cxa_end_catch@plt>
    bf32:	48 8b 45 00          	mov    0x0(%rbp),%rax
    bf36:	48 8b 80 f0 00 00 00 	mov    0xf0(%rax),%rax
    bf3d:	e9 6d 37 01 00       	jmpq   1f6af <_ZN5Utest3runEv+0x9f>
    bf42:	48 83 e8 01          	sub    $0x1,%rax
    bf46:	75 19                	jne    bf61 <_ZN5Utest3runEv.cold+0x45>
/home/rodne/dev/cProjects/cpputest/cpputest_build/../src/CppUTest/Utest.cpp:655
    catch (CppUTestFailedException&)
    bf48:	e8 93 e3 ff ff       	callq  a2e0 <__cxa_begin_catch@plt>
/home/rodne/dev/cProjects/cpputest/cpputest_build/../src/CppUTest/Utest.cpp:657
        PlatformSpecificRestoreJumpBuffer();
    bf4d:	ff 15 05 d2 02 00    	callq  *0x2d205(%rip)        # 39158 <PlatformSpecificRestoreJumpBuffer>
/home/rodne/dev/cProjects/cpputest/cpputest_build/../src/CppUTest/Utest.cpp:660
}
    bf53:	5b                   	pop    %rbx
    bf54:	5d                   	pop    %rbp
    bf55:	41 5c                	pop    %r12
/home/rodne/dev/cProjects/cpputest/cpputest_build/../src/CppUTest/Utest.cpp:655
    catch (CppUTestFailedException&)
    bf57:	e9 44 e5 ff ff       	jmpq   a4a0 <__cxa_end_catch@plt>
    bf5c:	e8 5f e5 ff ff       	callq  a4c0 <_Unwind_Resume@plt>
    bf61:	e8 5a e5 ff ff       	callq  a4c0 <_Unwind_Resume@plt>
    bf66:	f3 0f 1e fa          	endbr64 
    bf6a:	48 89 c5             	mov    %rax,%rbp
/home/rodne/dev/cProjects/cpputest/cpputest_build/../src/CppUTest/Utest.cpp:645
    catch (CppUTestFailedException&)
    bf6d:	e8 2e e5 ff ff       	callq  a4a0 <__cxa_end_catch@plt>
    bf72:	48 89 ef             	mov    %rbp,%rdi
    bf75:	e8 46 e5 ff ff       	callq  a4c0 <_Unwind_Resume@plt>
    bf7a:	f3 0f 1e fa          	endbr64 
    bf7e:	48 89 c5             	mov    %rax,%rbp
/home/rodne/dev/cProjects/cpputest/cpputest_build/../src/CppUTest/Utest.cpp:655
    catch (CppUTestFailedException&)
    bf81:	e8 1a e5 ff ff       	callq  a4a0 <__cxa_end_catch@plt>
    bf86:	48 89 ef             	mov    %rbp,%rdi
    bf89:	e8 32 e5 ff ff       	callq  a4c0 <_Unwind_Resume@plt>

000000000000bf8e <_ZNK10UtestShell5matchEPKcPK10TestFilter.cold>:
_ZNK10UtestShell5matchEPKcPK10TestFilter():
/home/rodne/dev/cProjects/cpputest/cpputest_build/../src/CppUTest/Utest.cpp:361 (discriminator 1)
        if(filters->match(target)) return true;
    bf8e:	4c 89 ef             	mov    %r13,%rdi
    bf91:	e8 3a 66 00 00       	callq  125d0 <_ZN12SimpleStringD1Ev>
    bf96:	48 89 ef             	mov    %rbp,%rdi
    bf99:	e8 22 e5 ff ff       	callq  a4c0 <_Unwind_Resume@plt>

000000000000bf9e <_ZN22UtestShellPointerArrayC2EP10UtestShell.cold>:
_ZN22UtestShellPointerArrayC2EP10UtestShell():
/home/rodne/dev/cProjects/cpputest/cpputest_build/../src/CppUTest/Utest.cpp:823 (discriminator 2)
    : arrayOfTests_(NULLPTR), count_(0)
{
    count_ = (firstTest) ? firstTest->countTests() : 0;
    if (count_ == 0) return;

    arrayOfTests_ = new UtestShell*[count_];
    bf9e:	e8 7d e4 ff ff       	callq  a420 <__cxa_throw_bad_array_new_length@plt>

000000000000bfa3 <_ZL44GccPlatformSpecificRunTestInASeperateProcessP10UtestShellP10TestPluginP10TestResult.cold>:
_ZL44GccPlatformSpecificRunTestInASeperateProcessP10UtestShellP10TestPluginP10TestResult.cold():
/home/rodne/dev/cProjects/cpputest/cpputest_build/../src/Platforms/Gcc/UtestPlatform.cpp:91
    if (WIFEXITED(status) && WEXITSTATUS(status) != 0) {
        result->addFailure(TestFailure(shell, "Failed in separate process"));
    } else if (WIFSIGNALED(status)) {
        SimpleString message("Failed in separate process - killed by signal ");
        message += StringFrom(WTERMSIG(status));
        result->addFailure(TestFailure(shell, message));
    bfa3:	4c 89 e7             	mov    %r12,%rdi
SetTestFailureByStatusCode():
/home/rodne/dev/cProjects/cpputest/cpputest_build/../src/Platforms/Gcc/UtestPlatform.cpp:91
    bfa6:	e8 35 98 00 00       	callq  157e0 <_ZN11TestFailureD1Ev>
/home/rodne/dev/cProjects/cpputest/cpputest_build/../src/Platforms/Gcc/UtestPlatform.cpp:93
    } else if (WIFSTOPPED(status)) {
        result->addFailure(TestFailure(shell, "Stopped in separate process - continuing"));
    bfab:	4c 89 ef             	mov    %r13,%rdi
    bfae:	e8 1d 66 00 00       	callq  125d0 <_ZN12SimpleStringD1Ev>
    bfb3:	48 89 ef             	mov    %rbp,%rdi
    bfb6:	e8 05 e5 ff ff       	callq  a4c0 <_Unwind_Resume@plt>
_ZL44GccPlatformSpecificRunTestInASeperateProcessP10UtestShellP10TestPluginP10TestResult.cold():
/home/rodne/dev/cProjects/cpputest/cpputest_build/../src/Platforms/Gcc/UtestPlatform.cpp:129 (discriminator 4)
                    return;
                  }
                  amountOfRetries++;
                }
                else {
                    result->addFailure(TestFailure(shell, "Call to waitpid() failed"));
    bfbb:	4c 89 e7             	mov    %r12,%rdi
GccPlatformSpecificRunTestInASeperateProcess():
/home/rodne/dev/cProjects/cpputest/cpputest_build/../src/Platforms/Gcc/UtestPlatform.cpp:129 (discriminator 4)
    bfbe:	49 89 dc             	mov    %rbx,%r12
    bfc1:	e8 1a 98 00 00       	callq  157e0 <_ZN11TestFailureD1Ev>
/home/rodne/dev/cProjects/cpputest/cpputest_build/../src/Platforms/Gcc/UtestPlatform.cpp:129 (discriminator 2)
    bfc6:	48 89 ef             	mov    %rbp,%rdi
    bfc9:	e8 02 66 00 00       	callq  125d0 <_ZN12SimpleStringD1Ev>
    bfce:	4c 89 e7             	mov    %r12,%rdi
    bfd1:	e8 ea e4 ff ff       	callq  a4c0 <_Unwind_Resume@plt>
/home/rodne/dev/cProjects/cpputest/cpputest_build/../src/Platforms/Gcc/UtestPlatform.cpp:123 (discriminator 4)
                    result->addFailure(TestFailure(shell, "Call to waitpid() failed with EINTR. Tried 30 times and giving up! Sometimes happens in debugger"));
    bfd6:	4c 89 e7             	mov    %r12,%rdi
    bfd9:	49 89 dc             	mov    %rbx,%r12
    bfdc:	e8 ff 97 00 00       	callq  157e0 <_ZN11TestFailureD1Ev>
    bfe1:	eb e3                	jmp    bfc6 <_ZL44GccPlatformSpecificRunTestInASeperateProcessP10UtestShellP10TestPluginP10TestResult.cold+0x23>
/home/rodne/dev/cProjects/cpputest/cpputest_build/../src/Platforms/Gcc/UtestPlatform.cpp:107 (discriminator 4)
        result->addFailure(TestFailure(shell, "Call to fork() failed"));
    bfe3:	4c 89 e7             	mov    %r12,%rdi
    bfe6:	49 89 dc             	mov    %rbx,%r12
    bfe9:	e8 f2 97 00 00       	callq  157e0 <_ZN11TestFailureD1Ev>
    bfee:	eb d6                	jmp    bfc6 <_ZL44GccPlatformSpecificRunTestInASeperateProcessP10UtestShellP10TestPluginP10TestResult.cold+0x23>
SetTestFailureByStatusCode():
/home/rodne/dev/cProjects/cpputest/cpputest_build/../src/Platforms/Gcc/UtestPlatform.cpp:87
        result->addFailure(TestFailure(shell, "Failed in separate process"));
    bff0:	4c 89 e7             	mov    %r12,%rdi
    bff3:	e8 e8 97 00 00       	callq  157e0 <_ZN11TestFailureD1Ev>
    bff8:	eb b1                	jmp    bfab <_ZL44GccPlatformSpecificRunTestInASeperateProcessP10UtestShellP10TestPluginP10TestResult.cold+0x8>
/home/rodne/dev/cProjects/cpputest/cpputest_build/../src/Platforms/Gcc/UtestPlatform.cpp:93
        result->addFailure(TestFailure(shell, "Stopped in separate process - continuing"));
    bffa:	4c 89 e7             	mov    %r12,%rdi
    bffd:	e8 de 97 00 00       	callq  157e0 <_ZN11TestFailureD1Ev>
    c002:	eb a7                	jmp    bfab <_ZL44GccPlatformSpecificRunTestInASeperateProcessP10UtestShellP10TestPluginP10TestResult.cold+0x8>
/home/rodne/dev/cProjects/cpputest/cpputest_build/../src/Platforms/Gcc/UtestPlatform.cpp:90
        message += StringFrom(WTERMSIG(status));
    c004:	4c 89 e7             	mov    %r12,%rdi
    c007:	e8 c4 65 00 00       	callq  125d0 <_ZN12SimpleStringD1Ev>
    c00c:	eb 9d                	jmp    bfab <_ZL44GccPlatformSpecificRunTestInASeperateProcessP10UtestShellP10TestPluginP10TestResult.cold+0x8>

000000000000c00e <_ZN20CommandLineArguments14setRepeatCountEiPKPKcRi.cold>:
_ZN20CommandLineArguments14setRepeatCountEiPKPKcRi():
/home/rodne/dev/cProjects/cpputest/cpputest_build/../src/CppUTest/CommandLineArguments.cpp:230

void CommandLineArguments::setRepeatCount(int ac, const char *const *av, int& i)
{
    repeat_ = 0;

    SimpleString repeatParameter(av[i]);
    c00e:	4c 89 ef             	mov    %r13,%rdi
    c011:	e8 ba 65 00 00       	callq  125d0 <_ZN12SimpleStringD1Ev>
    c016:	48 89 ef             	mov    %rbp,%rdi
    c019:	e8 a2 e4 ff ff       	callq  a4c0 <_Unwind_Resume@plt>

000000000000c01e <_ZN20CommandLineArguments10setShuffleEiPKPKcRi.cold>:
_ZN20CommandLineArguments10setShuffleEiPKPKcRi():
/home/rodne/dev/cProjects/cpputest/cpputest_build/../src/CppUTest/CommandLineArguments.cpp:247
{
    shuffling_ = true;
    shuffleSeed_ = (unsigned int)GetPlatformSpecificTimeInMillis();
    if (shuffleSeed_ == 0) shuffleSeed_++;

    SimpleString shuffleParameter = av[i];
    c01e:	4c 89 f7             	mov    %r14,%rdi
    c021:	e8 aa 65 00 00       	callq  125d0 <_ZN12SimpleStringD1Ev>
    c026:	48 89 ef             	mov    %rbp,%rdi
    c029:	e8 92 e4 ff ff       	callq  a4c0 <_Unwind_Resume@plt>

000000000000c02e <_ZN20CommandLineArguments17getParameterFieldEiPKPKcRiRK12SimpleString.cold>:
_ZN20CommandLineArguments17getParameterFieldEiPKPKcRiRK12SimpleString():
/home/rodne/dev/cProjects/cpputest/cpputest_build/../src/CppUTest/CommandLineArguments.cpp:266
}

SimpleString CommandLineArguments::getParameterField(int ac, const char * const *av, int& i, const SimpleString& parameterName)
{
    size_t parameterLength = parameterName.size();
    SimpleString parameter(av[i]);
    c02e:	4c 89 ef             	mov    %r13,%rdi
    c031:	e8 9a 65 00 00       	callq  125d0 <_ZN12SimpleStringD1Ev>
    c036:	48 89 ef             	mov    %rbp,%rdi
    c039:	e8 82 e4 ff ff       	callq  a4c0 <_Unwind_Resume@plt>

000000000000c03e <_ZN20CommandLineArguments14addGroupFilterEiPKPKcRi.cold>:
_ZN20CommandLineArguments14addGroupFilterEiPKPKcRi():
/home/rodne/dev/cProjects/cpputest/cpputest_build/../src/CppUTest/CommandLineArguments.cpp:274 (discriminator 5)
    return "";
}

void CommandLineArguments::addGroupFilter(int ac, const char *const *av, int& i)
{
    TestFilter* groupFilter = new TestFilter(getParameterField(ac, av, i, "-g"));
    c03e:	48 89 ef             	mov    %rbp,%rdi
    c041:	ba 12 01 00 00       	mov    $0x112,%edx
    c046:	48 8d 35 3b b6 01 00 	lea    0x1b63b(%rip),%rsi        # 27688 <_ZTS23CppUTestFailedException+0xb58>
    c04d:	48 89 dd             	mov    %rbx,%rbp
    c050:	e8 db 44 00 00       	callq  10530 <_ZdlPvPKci>
/home/rodne/dev/cProjects/cpputest/cpputest_build/../src/CppUTest/CommandLineArguments.cpp:274 (discriminator 3)
    c055:	4c 89 ef             	mov    %r13,%rdi
    c058:	e8 73 65 00 00       	callq  125d0 <_ZN12SimpleStringD1Ev>
/home/rodne/dev/cProjects/cpputest/cpputest_build/../src/CppUTest/CommandLineArguments.cpp:274 (discriminator 1)
    c05d:	4c 89 e7             	mov    %r12,%rdi
    c060:	e8 6b 65 00 00       	callq  125d0 <_ZN12SimpleStringD1Ev>
    c065:	48 89 ef             	mov    %rbp,%rdi
    c068:	e8 53 e4 ff ff       	callq  a4c0 <_Unwind_Resume@plt>
_ZN20CommandLineArguments14addGroupFilterEiPKPKcRi.cold():
/home/rodne/dev/cProjects/cpputest/cpputest_build/../src/CppUTest/CommandLineArguments.cpp:274 (discriminator 1)
    c06d:	90                   	nop

000000000000c06e <_ZN20CommandLineArguments21addGroupDotNameFilterEiPKPKcRi.cold>:
_ZN20CommandLineArguments21addGroupDotNameFilterEiPKPKcRi():
/home/rodne/dev/cProjects/cpputest/cpputest_build/../src/CppUTest/CommandLineArguments.cpp:282 (discriminator 2)

bool CommandLineArguments::addGroupDotNameFilter(int ac, const char *const *av, int& i)
{
    SimpleString groupDotName = getParameterField(ac, av, i, "-t");
    SimpleStringCollection collection;
    groupDotName.split(".", collection);
    c06e:	4c 89 e7             	mov    %r12,%rdi
    c071:	e8 5a 65 00 00       	callq  125d0 <_ZN12SimpleStringD1Ev>
/home/rodne/dev/cProjects/cpputest/cpputest_build/../src/CppUTest/CommandLineArguments.cpp:281
    SimpleStringCollection collection;
    c076:	48 89 ef             	mov    %rbp,%rdi
    c079:	e8 f2 8b 00 00       	callq  14c70 <_ZN22SimpleStringCollectionD1Ev>
/home/rodne/dev/cProjects/cpputest/cpputest_build/../src/CppUTest/CommandLineArguments.cpp:280
    SimpleString groupDotName = getParameterField(ac, av, i, "-t");
    c07e:	4c 89 ef             	mov    %r13,%rdi
    c081:	e8 4a 65 00 00       	callq  125d0 <_ZN12SimpleStringD1Ev>
    c086:	48 89 df             	mov    %rbx,%rdi
    c089:	e8 32 e4 ff ff       	callq  a4c0 <_Unwind_Resume@plt>
    c08e:	48 89 ef             	mov    %rbp,%rdi
    c091:	e8 3a 65 00 00       	callq  125d0 <_ZN12SimpleStringD1Ev>
    c096:	4c 89 e7             	mov    %r12,%rdi
    c099:	e8 22 e4 ff ff       	callq  a4c0 <_Unwind_Resume@plt>
/home/rodne/dev/cProjects/cpputest/cpputest_build/../src/CppUTest/CommandLineArguments.cpp:286 (discriminator 7)

    if (collection.size() != 2) return false;

    groupFilters_ = (new TestFilter(collection[0].subString(0, collection[0].size()-1)))->add(groupFilters_);
    c09e:	ba 1e 01 00 00       	mov    $0x11e,%edx
    c0a3:	48 8d 35 de b5 01 00 	lea    0x1b5de(%rip),%rsi        # 27688 <_ZTS23CppUTestFailedException+0xb58>
    c0aa:	4c 89 f7             	mov    %r14,%rdi
    c0ad:	e8 7e 44 00 00       	callq  10530 <_ZdlPvPKci>
/home/rodne/dev/cProjects/cpputest/cpputest_build/../src/CppUTest/CommandLineArguments.cpp:286 (discriminator 9)
    c0b2:	4c 89 e7             	mov    %r12,%rdi
    c0b5:	e8 16 65 00 00       	callq  125d0 <_ZN12SimpleStringD1Ev>
    c0ba:	eb ba                	jmp    c076 <_ZN20CommandLineArguments21addGroupDotNameFilterEiPKPKcRi.cold+0x8>
/home/rodne/dev/cProjects/cpputest/cpputest_build/../src/CppUTest/CommandLineArguments.cpp:287 (discriminator 3)
    nameFilters_ = (new TestFilter(collection[1]))->add(nameFilters_);
    c0bc:	ba 1f 01 00 00       	mov    $0x11f,%edx
    c0c1:	48 8d 35 c0 b5 01 00 	lea    0x1b5c0(%rip),%rsi        # 27688 <_ZTS23CppUTestFailedException+0xb58>
    c0c8:	4c 89 e7             	mov    %r12,%rdi
    c0cb:	e8 60 44 00 00       	callq  10530 <_ZdlPvPKci>
    c0d0:	eb a4                	jmp    c076 <_ZN20CommandLineArguments21addGroupDotNameFilterEiPKPKcRi.cold+0x8>

000000000000c0d2 <_ZN20CommandLineArguments20addStrictGroupFilterEiPKPKcRi.cold>:
_ZN20CommandLineArguments20addStrictGroupFilterEiPKPKcRi():
/home/rodne/dev/cProjects/cpputest/cpputest_build/../src/CppUTest/CommandLineArguments.cpp:293 (discriminator 5)
    return true;
}

void CommandLineArguments::addStrictGroupFilter(int ac, const char *const *av, int& i)
{
    TestFilter* groupFilter = new TestFilter(getParameterField(ac, av, i, "-sg"));
    c0d2:	48 89 ef             	mov    %rbp,%rdi
    c0d5:	ba 25 01 00 00       	mov    $0x125,%edx
    c0da:	48 8d 35 a7 b5 01 00 	lea    0x1b5a7(%rip),%rsi        # 27688 <_ZTS23CppUTestFailedException+0xb58>
    c0e1:	48 89 dd             	mov    %rbx,%rbp
    c0e4:	e8 47 44 00 00       	callq  10530 <_ZdlPvPKci>
/home/rodne/dev/cProjects/cpputest/cpputest_build/../src/CppUTest/CommandLineArguments.cpp:293 (discriminator 3)
    c0e9:	4c 89 ef             	mov    %r13,%rdi
    c0ec:	e8 df 64 00 00       	callq  125d0 <_ZN12SimpleStringD1Ev>
/home/rodne/dev/cProjects/cpputest/cpputest_build/../src/CppUTest/CommandLineArguments.cpp:293 (discriminator 1)
    c0f1:	4c 89 e7             	mov    %r12,%rdi
    c0f4:	e8 d7 64 00 00       	callq  125d0 <_ZN12SimpleStringD1Ev>
    c0f9:	48 89 ef             	mov    %rbp,%rdi
    c0fc:	e8 bf e3 ff ff       	callq  a4c0 <_Unwind_Resume@plt>
_ZN20CommandLineArguments20addStrictGroupFilterEiPKPKcRi.cold():
/home/rodne/dev/cProjects/cpputest/cpputest_build/../src/CppUTest/CommandLineArguments.cpp:293 (discriminator 1)
    c101:	90                   	nop

000000000000c102 <_ZN20CommandLineArguments21addExcludeGroupFilterEiPKPKcRi.cold>:
_ZN20CommandLineArguments21addExcludeGroupFilterEiPKPKcRi():
/home/rodne/dev/cProjects/cpputest/cpputest_build/../src/CppUTest/CommandLineArguments.cpp:300 (discriminator 5)
    groupFilters_ = groupFilter->add(groupFilters_);
}

void CommandLineArguments::addExcludeGroupFilter(int ac, const char *const *av, int& i)
{
    TestFilter* groupFilter = new TestFilter(getParameterField(ac, av, i, "-xg"));
    c102:	48 89 ef             	mov    %rbp,%rdi
    c105:	ba 2c 01 00 00       	mov    $0x12c,%edx
    c10a:	48 8d 35 77 b5 01 00 	lea    0x1b577(%rip),%rsi        # 27688 <_ZTS23CppUTestFailedException+0xb58>
    c111:	48 89 dd             	mov    %rbx,%rbp
    c114:	e8 17 44 00 00       	callq  10530 <_ZdlPvPKci>
/home/rodne/dev/cProjects/cpputest/cpputest_build/../src/CppUTest/CommandLineArguments.cpp:300 (discriminator 3)
    c119:	4c 89 ef             	mov    %r13,%rdi
    c11c:	e8 af 64 00 00       	callq  125d0 <_ZN12SimpleStringD1Ev>
/home/rodne/dev/cProjects/cpputest/cpputest_build/../src/CppUTest/CommandLineArguments.cpp:300 (discriminator 1)
    c121:	4c 89 e7             	mov    %r12,%rdi
    c124:	e8 a7 64 00 00       	callq  125d0 <_ZN12SimpleStringD1Ev>
    c129:	48 89 ef             	mov    %rbp,%rdi
    c12c:	e8 8f e3 ff ff       	callq  a4c0 <_Unwind_Resume@plt>
_ZN20CommandLineArguments21addExcludeGroupFilterEiPKPKcRi.cold():
/home/rodne/dev/cProjects/cpputest/cpputest_build/../src/CppUTest/CommandLineArguments.cpp:300 (discriminator 1)
    c131:	90                   	nop

000000000000c132 <_ZN20CommandLineArguments27addExcludeStrictGroupFilterEiPKPKcRi.cold>:
_ZN20CommandLineArguments27addExcludeStrictGroupFilterEiPKPKcRi():
/home/rodne/dev/cProjects/cpputest/cpputest_build/../src/CppUTest/CommandLineArguments.cpp:307 (discriminator 5)
    groupFilters_ = groupFilter->add(groupFilters_);
}

void CommandLineArguments::addExcludeStrictGroupFilter(int ac, const char *const *av, int& i)
{
    TestFilter* groupFilter = new TestFilter(getParameterField(ac, av, i, "-xsg"));
    c132:	48 89 ef             	mov    %rbp,%rdi
    c135:	ba 33 01 00 00       	mov    $0x133,%edx
    c13a:	48 8d 35 47 b5 01 00 	lea    0x1b547(%rip),%rsi        # 27688 <_ZTS23CppUTestFailedException+0xb58>
    c141:	48 89 dd             	mov    %rbx,%rbp
    c144:	e8 e7 43 00 00       	callq  10530 <_ZdlPvPKci>
/home/rodne/dev/cProjects/cpputest/cpputest_build/../src/CppUTest/CommandLineArguments.cpp:307 (discriminator 3)
    c149:	4c 89 ef             	mov    %r13,%rdi
    c14c:	e8 7f 64 00 00       	callq  125d0 <_ZN12SimpleStringD1Ev>
/home/rodne/dev/cProjects/cpputest/cpputest_build/../src/CppUTest/CommandLineArguments.cpp:307 (discriminator 1)
    c151:	4c 89 e7             	mov    %r12,%rdi
    c154:	e8 77 64 00 00       	callq  125d0 <_ZN12SimpleStringD1Ev>
    c159:	48 89 ef             	mov    %rbp,%rdi
    c15c:	e8 5f e3 ff ff       	callq  a4c0 <_Unwind_Resume@plt>
_ZN20CommandLineArguments27addExcludeStrictGroupFilterEiPKPKcRi.cold():
/home/rodne/dev/cProjects/cpputest/cpputest_build/../src/CppUTest/CommandLineArguments.cpp:307 (discriminator 1)
    c161:	90                   	nop

000000000000c162 <_ZN20CommandLineArguments13addNameFilterEiPKPKcRi.cold>:
_ZN20CommandLineArguments13addNameFilterEiPKPKcRi():
/home/rodne/dev/cProjects/cpputest/cpputest_build/../src/CppUTest/CommandLineArguments.cpp:315 (discriminator 5)
    groupFilters_ = groupFilter->add(groupFilters_);
}

void CommandLineArguments::addNameFilter(int ac, const char *const *av, int& i)
{
    TestFilter* nameFilter = new TestFilter(getParameterField(ac, av, i, "-n"));
    c162:	48 89 ef             	mov    %rbp,%rdi
    c165:	ba 3b 01 00 00       	mov    $0x13b,%edx
    c16a:	48 8d 35 17 b5 01 00 	lea    0x1b517(%rip),%rsi        # 27688 <_ZTS23CppUTestFailedException+0xb58>
    c171:	48 89 dd             	mov    %rbx,%rbp
    c174:	e8 b7 43 00 00       	callq  10530 <_ZdlPvPKci>
/home/rodne/dev/cProjects/cpputest/cpputest_build/../src/CppUTest/CommandLineArguments.cpp:315 (discriminator 3)
    c179:	4c 89 ef             	mov    %r13,%rdi
    c17c:	e8 4f 64 00 00       	callq  125d0 <_ZN12SimpleStringD1Ev>
/home/rodne/dev/cProjects/cpputest/cpputest_build/../src/CppUTest/CommandLineArguments.cpp:315 (discriminator 1)
    c181:	4c 89 e7             	mov    %r12,%rdi
    c184:	e8 47 64 00 00       	callq  125d0 <_ZN12SimpleStringD1Ev>
    c189:	48 89 ef             	mov    %rbp,%rdi
    c18c:	e8 2f e3 ff ff       	callq  a4c0 <_Unwind_Resume@plt>
_ZN20CommandLineArguments13addNameFilterEiPKPKcRi.cold():
/home/rodne/dev/cProjects/cpputest/cpputest_build/../src/CppUTest/CommandLineArguments.cpp:315 (discriminator 1)
    c191:	90                   	nop

000000000000c192 <_ZN20CommandLineArguments19addStrictNameFilterEiPKPKcRi.cold>:
_ZN20CommandLineArguments19addStrictNameFilterEiPKPKcRi():
/home/rodne/dev/cProjects/cpputest/cpputest_build/../src/CppUTest/CommandLineArguments.cpp:321 (discriminator 5)
    nameFilters_ = nameFilter->add(nameFilters_);
}

void CommandLineArguments::addStrictNameFilter(int ac, const char *const *av, int& index)
{
    TestFilter* nameFilter = new TestFilter(getParameterField(ac, av, index, "-sn"));
    c192:	48 89 ef             	mov    %rbp,%rdi
    c195:	ba 41 01 00 00       	mov    $0x141,%edx
    c19a:	48 8d 35 e7 b4 01 00 	lea    0x1b4e7(%rip),%rsi        # 27688 <_ZTS23CppUTestFailedException+0xb58>
    c1a1:	48 89 dd             	mov    %rbx,%rbp
    c1a4:	e8 87 43 00 00       	callq  10530 <_ZdlPvPKci>
/home/rodne/dev/cProjects/cpputest/cpputest_build/../src/CppUTest/CommandLineArguments.cpp:321 (discriminator 3)
    c1a9:	4c 89 ef             	mov    %r13,%rdi
    c1ac:	e8 1f 64 00 00       	callq  125d0 <_ZN12SimpleStringD1Ev>
/home/rodne/dev/cProjects/cpputest/cpputest_build/../src/CppUTest/CommandLineArguments.cpp:321 (discriminator 1)
    c1b1:	4c 89 e7             	mov    %r12,%rdi
    c1b4:	e8 17 64 00 00       	callq  125d0 <_ZN12SimpleStringD1Ev>
    c1b9:	48 89 ef             	mov    %rbp,%rdi
    c1bc:	e8 ff e2 ff ff       	callq  a4c0 <_Unwind_Resume@plt>
_ZN20CommandLineArguments19addStrictNameFilterEiPKPKcRi.cold():
/home/rodne/dev/cProjects/cpputest/cpputest_build/../src/CppUTest/CommandLineArguments.cpp:321 (discriminator 1)
    c1c1:	90                   	nop

000000000000c1c2 <_ZN20CommandLineArguments20addExcludeNameFilterEiPKPKcRi.cold>:
_ZN20CommandLineArguments20addExcludeNameFilterEiPKPKcRi():
/home/rodne/dev/cProjects/cpputest/cpputest_build/../src/CppUTest/CommandLineArguments.cpp:328 (discriminator 5)
    nameFilters_= nameFilter->add(nameFilters_);
}

void CommandLineArguments::addExcludeNameFilter(int ac, const char *const *av, int& index)
{
    TestFilter* nameFilter = new TestFilter(getParameterField(ac, av, index, "-xn"));
    c1c2:	48 89 ef             	mov    %rbp,%rdi
    c1c5:	ba 48 01 00 00       	mov    $0x148,%edx
    c1ca:	48 8d 35 b7 b4 01 00 	lea    0x1b4b7(%rip),%rsi        # 27688 <_ZTS23CppUTestFailedException+0xb58>
    c1d1:	48 89 dd             	mov    %rbx,%rbp
    c1d4:	e8 57 43 00 00       	callq  10530 <_ZdlPvPKci>
/home/rodne/dev/cProjects/cpputest/cpputest_build/../src/CppUTest/CommandLineArguments.cpp:328 (discriminator 3)
    c1d9:	4c 89 ef             	mov    %r13,%rdi
    c1dc:	e8 ef 63 00 00       	callq  125d0 <_ZN12SimpleStringD1Ev>
/home/rodne/dev/cProjects/cpputest/cpputest_build/../src/CppUTest/CommandLineArguments.cpp:328 (discriminator 1)
    c1e1:	4c 89 e7             	mov    %r12,%rdi
    c1e4:	e8 e7 63 00 00       	callq  125d0 <_ZN12SimpleStringD1Ev>
    c1e9:	48 89 ef             	mov    %rbp,%rdi
    c1ec:	e8 cf e2 ff ff       	callq  a4c0 <_Unwind_Resume@plt>
_ZN20CommandLineArguments20addExcludeNameFilterEiPKPKcRi.cold():
/home/rodne/dev/cProjects/cpputest/cpputest_build/../src/CppUTest/CommandLineArguments.cpp:328 (discriminator 1)
    c1f1:	90                   	nop

000000000000c1f2 <_ZN20CommandLineArguments26addExcludeStrictNameFilterEiPKPKcRi.cold>:
_ZN20CommandLineArguments26addExcludeStrictNameFilterEiPKPKcRi():
/home/rodne/dev/cProjects/cpputest/cpputest_build/../src/CppUTest/CommandLineArguments.cpp:335 (discriminator 5)
    nameFilters_= nameFilter->add(nameFilters_);
}

void CommandLineArguments::addExcludeStrictNameFilter(int ac, const char *const *av, int& index)
{
    TestFilter* nameFilter = new TestFilter(getParameterField(ac, av, index, "-xsn"));
    c1f2:	48 89 ef             	mov    %rbp,%rdi
    c1f5:	ba 4f 01 00 00       	mov    $0x14f,%edx
    c1fa:	48 8d 35 87 b4 01 00 	lea    0x1b487(%rip),%rsi        # 27688 <_ZTS23CppUTestFailedException+0xb58>
    c201:	48 89 dd             	mov    %rbx,%rbp
    c204:	e8 27 43 00 00       	callq  10530 <_ZdlPvPKci>
/home/rodne/dev/cProjects/cpputest/cpputest_build/../src/CppUTest/CommandLineArguments.cpp:335 (discriminator 3)
    c209:	4c 89 ef             	mov    %r13,%rdi
    c20c:	e8 bf 63 00 00       	callq  125d0 <_ZN12SimpleStringD1Ev>
/home/rodne/dev/cProjects/cpputest/cpputest_build/../src/CppUTest/CommandLineArguments.cpp:335 (discriminator 1)
    c211:	4c 89 e7             	mov    %r12,%rdi
    c214:	e8 b7 63 00 00       	callq  125d0 <_ZN12SimpleStringD1Ev>
    c219:	48 89 ef             	mov    %rbp,%rdi
    c21c:	e8 9f e2 ff ff       	callq  a4c0 <_Unwind_Resume@plt>
_ZN20CommandLineArguments26addExcludeStrictNameFilterEiPKPKcRi.cold():
/home/rodne/dev/cProjects/cpputest/cpputest_build/../src/CppUTest/CommandLineArguments.cpp:335 (discriminator 1)
    c221:	90                   	nop

000000000000c222 <_ZN20CommandLineArguments32addTestToRunBasedOnVerboseOutputEiPKPKcRiS1_.cold>:
_ZN20CommandLineArguments32addTestToRunBasedOnVerboseOutputEiPKPKcRiS1_():
/home/rodne/dev/cProjects/cpputest/cpputest_build/../src/CppUTest/CommandLineArguments.cpp:347 (discriminator 5)
{
    SimpleString wholename = getParameterField(ac, av, index, parameterName);
    SimpleString testname = wholename.subStringFromTill(',', ')');
    testname = testname.subString(2);
    TestFilter* namefilter = new TestFilter(testname);
    TestFilter* groupfilter = new TestFilter(wholename.subStringFromTill(wholename.at(0), ','));
    c222:	ba 5b 01 00 00       	mov    $0x15b,%edx
    c227:	48 8d 35 5a b4 01 00 	lea    0x1b45a(%rip),%rsi        # 27688 <_ZTS23CppUTestFailedException+0xb58>
    c22e:	4c 89 f7             	mov    %r14,%rdi
    c231:	e8 fa 42 00 00       	callq  10530 <_ZdlPvPKci>
/home/rodne/dev/cProjects/cpputest/cpputest_build/../src/CppUTest/CommandLineArguments.cpp:347 (discriminator 3)
    c236:	48 89 ef             	mov    %rbp,%rdi
    c239:	e8 92 63 00 00       	callq  125d0 <_ZN12SimpleStringD1Ev>
/home/rodne/dev/cProjects/cpputest/cpputest_build/../src/CppUTest/CommandLineArguments.cpp:344
    SimpleString testname = wholename.subStringFromTill(',', ')');
    c23e:	4c 89 ef             	mov    %r13,%rdi
    c241:	e8 8a 63 00 00       	callq  125d0 <_ZN12SimpleStringD1Ev>
/home/rodne/dev/cProjects/cpputest/cpputest_build/../src/CppUTest/CommandLineArguments.cpp:343
    SimpleString wholename = getParameterField(ac, av, index, parameterName);
    c246:	4c 89 e7             	mov    %r12,%rdi
    c249:	e8 82 63 00 00       	callq  125d0 <_ZN12SimpleStringD1Ev>
    c24e:	48 89 df             	mov    %rbx,%rdi
    c251:	e8 6a e2 ff ff       	callq  a4c0 <_Unwind_Resume@plt>
/home/rodne/dev/cProjects/cpputest/cpputest_build/../src/CppUTest/CommandLineArguments.cpp:346 (discriminator 2)
    TestFilter* namefilter = new TestFilter(testname);
    c256:	ba 5a 01 00 00       	mov    $0x15a,%edx
    c25b:	48 8d 35 26 b4 01 00 	lea    0x1b426(%rip),%rsi        # 27688 <_ZTS23CppUTestFailedException+0xb58>
    c262:	4c 89 ff             	mov    %r15,%rdi
    c265:	e8 c6 42 00 00       	callq  10530 <_ZdlPvPKci>
    c26a:	eb d2                	jmp    c23e <_ZN20CommandLineArguments32addTestToRunBasedOnVerboseOutputEiPKPKcRiS1_.cold+0x1c>
/home/rodne/dev/cProjects/cpputest/cpputest_build/../src/CppUTest/CommandLineArguments.cpp:345 (discriminator 2)
    testname = testname.subString(2);
    c26c:	48 89 ef             	mov    %rbp,%rdi
    c26f:	e8 5c 63 00 00       	callq  125d0 <_ZN12SimpleStringD1Ev>
    c274:	eb c8                	jmp    c23e <_ZN20CommandLineArguments32addTestToRunBasedOnVerboseOutputEiPKPKcRiS1_.cold+0x1c>
    c276:	48 89 ef             	mov    %rbp,%rdi
    c279:	e8 52 63 00 00       	callq  125d0 <_ZN12SimpleStringD1Ev>
    c27e:	4c 89 e7             	mov    %r12,%rdi
    c281:	e8 3a e2 ff ff       	callq  a4c0 <_Unwind_Resume@plt>

000000000000c286 <_ZN20CommandLineArguments14setPackageNameEiPKPKcRi.cold>:
_ZN20CommandLineArguments14setPackageNameEiPKPKcRi():
/home/rodne/dev/cProjects/cpputest/cpputest_build/../src/CppUTest/CommandLineArguments.cpp:356
    nameFilters_ = namefilter->add(nameFilters_);
}

void CommandLineArguments::setPackageName(int ac, const char *const *av, int& i)
{
    SimpleString packageName = getParameterField(ac, av, i, "-k");
    c286:	48 89 ef             	mov    %rbp,%rdi
    c289:	e8 42 63 00 00       	callq  125d0 <_ZN12SimpleStringD1Ev>
    c28e:	4c 89 e7             	mov    %r12,%rdi
    c291:	e8 2a e2 ff ff       	callq  a4c0 <_Unwind_Resume@plt>
    c296:	4c 89 e7             	mov    %r12,%rdi
    c299:	e8 32 63 00 00       	callq  125d0 <_ZN12SimpleStringD1Ev>
    c29e:	48 89 ef             	mov    %rbp,%rdi
    c2a1:	e8 1a e2 ff ff       	callq  a4c0 <_Unwind_Resume@plt>

000000000000c2a6 <_ZN20CommandLineArguments13setOutputTypeEiPKPKcRi.cold>:
_ZN20CommandLineArguments13setOutputTypeEiPKPKcRi():
/home/rodne/dev/cProjects/cpputest/cpputest_build/../src/CppUTest/CommandLineArguments.cpp:375 (discriminator 2)
    }
    if (outputType == "junit") {
        outputType_ = OUTPUT_JUNIT;
        return true;
    }
    if (outputType == "teamcity") {
    c2a6:	48 89 ef             	mov    %rbp,%rdi
    c2a9:	e8 22 63 00 00       	callq  125d0 <_ZN12SimpleStringD1Ev>
